(dp1
I57532
V\u115f\u1161\u11ae
p2
sI57533
V\u115f\u1161\ud7cd
p3
sI57534
V\u115f\u1161\u11af
p4
sI57535
V\u115f\u1161\u11b0
p5
sI57536
V\u115f\u1161\u11b1
p6
sI57537
V\u115f\u1161\u11b2
p7
sI57538
V\u115f\u1161\u11ba
p8
sI57539
V\u115f\u1161\u11bb
p9
sI57540
V\u115f\u1161\u11bd
p10
sI57541
V\u115f\u1161\ud7f9
p11
sI57542
V\u115f\u11a3
p12
sI57543
V\u115f\u11a3\u11ae
p13
sI57544
V\u115f\u1163\u11ab
p14
sI57545
V\u115f\u1165\u11af
p15
sI57546
V\u115f\u1165\u11b8
p16
sI57547
V\u115f\u116e\u11ab
p17
sI57548
V\u115f\u1175\u11a8
p18
sI57549
V\u115f\u1175\u11ab
p19
sI57550
V\u115f\u1175\u11af
p20
sI57551
V\u115f\u1175\u11ba
p21
sI57552
V\u115f\u1175\u11bc
p22
sI57553
V\u115f\u119e\u11af
p23
sI57554
V\u1100\u1161\u11ff
p24
sI57555
V\u1100\u1161\u11c7
p25
sI57556
V\u1100\u1161\u11ca
p26
sI57557
V\u1100\u1161\u11cd
p27
sI57558
V\u1100\u1161\u11ce
p28
sI57559
V\u1100\u1161\u11d0
p29
sI57560
V\u1100\u1161\ud7db
p30
sI57561
V\u1100\u1161\u11d9
p31
sI57562
V\u1100\u1161\u11dd
p32
sI57563
V\u1100\u1161\u11e1
p33
sI57564
V\u1100\u1161\u11e2
p34
sI57565
V\u1100\u1161\u11e4
p35
sI57566
V\u1100\u1161\u11e5
p36
sI57567
V\u1100\u1161\u11e6
p37
sI57568
V\u1100\u1161\u11e7
p38
sI57569
V\u1100\u1161\u11ea
p39
sI57570
V\u1100\u1161\ud7f0
p40
sI57571
V\u1100\u1161\ud7f1
p41
sI57572
V\u1100\u1161\u11eb
p42
sI57573
V\u1100\u1161\u11f1
p43
sI57574
V\u1100\u1161\u11f0
p44
sI57575
V\u1100\u1161\u11f1
p45
sI57576
V\u1100\u1161\u11f9
p46
sI57577
V\u1100\u1176
p47
sI57578
V\u1100\u1177
p48
sI57579
V\u1100\u1162\u11cd
p49
sI57580
V\u1100\u1162\ud7db
p50
sI57581
V\u1100\u1162\u11f0
p51
sI57582
V\u1100\u1163\u11e2
p52
sI57583
V\u1100\u1163\u11e6
p53
sI57584
V\u1100\u1163\u11f0
p54
sI57585
V\u1100\u1163\u11f9
p55
sI57586
V\u1100\u1178
p56
sI57587
V\u1100\u1165\u11c7
p57
sI57588
V\u1100\u1165\u11d0
p58
sI57589
V\u1100\u1165\u11d9
p59
sI57590
V\u1100\u1165\u11dd
p60
sI57591
V\u1100\u1165\u11e2
p61
sI57592
V\u1100\u1165\u11e3
p62
sI57593
V\u1100\u1165\u11e6
p63
sI57594
V\u1100\u1165\u11e7
p64
sI57595
V\u1100\u1165\ud7f0
p65
sI57596
V\u1100\u1165\ud7f2
p66
sI57597
V\u1100\u1165\u11eb
p67
sI57598
V\u1100\u1165\u11f0
p68
sI57599
V\u1100\u1165\u11f9
p69
sI57600
V\u1100\u117c
p70
sI57601
V\u1100\u117c\u11ab
p71
sI57602
V\u1100\u117c\u11af
p72
sI57603
V\u1100\u117c\u11b7
p73
sI57604
V\u1100\u1166\u11f0
p74
sI57605
V\u1100\u1167\ud7d4
p75
sI57606
V\u1100\u1167\u11d9
p76
sI57607
V\u1100\u1167\u11e2
p77
sI57608
V\u1100\u1167\ud7e9
p78
sI57609
V\u1100\u1167\u11e7
p79
sI57610
V\u1100\u1167\ud7f0
p80
sI57611
V\u1100\u1167\ud7f1
p81
sI57612
V\u1100\u1167\ud7f2
p82
sI57613
V\u1100\u1167\u11eb
p83
sI57614
V\u1100\u1167\u11f0
p84
sI57615
V\u1100\u1167\u11f1
p85
sI57616
V\u1100\u1167\u11f9
p86
sI57617
V\u1100\u1168\u11f0
p87
sI57618
V\u1100\u1169\u11d0
p88
sI57619
V\u1100\u1169\ud7da
p89
sI57620
V\u1100\u1169\u11d6
p90
sI57621
V\u1100\u1169\u11d9
p91
sI57622
V\u1100\u1169\u11da
p92
sI57623
V\u1100\u1169\u11dd
p93
sI57624
V\u1100\u1169\u11e2
p94
sI57625
V\u1100\u1169\u11e6
p95
sI57626
V\u1100\u1169\ud7f0
p96
sI57627
V\u1100\u1169\u11eb
p97
sI57628
V\u1100\u1169\u11f0
p98
sI57629
V\u1100\u1169\u11f1
p99
sI57630
V\u1100\u1169\u11f7
p100
sI57631
V\u1100\u1169\u11f8
p101
sI57632
V\u1100\u116a\u11c7
p102
sI57633
V\u1100\u116a\u11d9
p103
sI57634
V\u1100\u116a\u11f0
p104
sI57635
V\u1100\u116a\u11f9
p105
sI57636
V\u1100\u11a6
p106
sI57637
V\u1100\u11a6\u11bc
p107
sI57638
V\u1100\u117f
p108
sI57639
V\u1100\u117f\u11ab
p109
sI57640
V\u1100\u117f\u11af
p110
sI57641
V\u1100\u1182
p111
sI57642
V\u1100\u1182\u11af
p112
sI57643
V\u1100\u116c\u11f0
p113
sI57644
V\u1100\u116d\u11d9
p114
sI57645
V\u1100\u116d\u11e2
p115
sI57646
V\u1100\u116d\u11f0
p116
sI57647
V\u1100\ud7b2
p117
sI57648
V\u1100\ud7b3
p118
sI57649
V\u1100\ud7b3\u11af
p119
sI57650
V\u1100\u1184
p120
sI57651
V\u1100\u1185
p121
sI57652
V\u1100\u1185\u11af
p122
sI57653
V\u1100\u1185\u11b0
p123
sI57654
V\u1100\u1188
p124
sI57655
V\u1100\u1188\u11ab
p125
sI57656
V\u1100\u116e\u11fd
p126
sI57657
V\u1100\u116e\u11c7
p127
sI57658
V\u1100\u116e\u11cd
p128
sI57659
V\u1100\u116e\u11d0
p129
sI57660
V\u1100\u116e\u11d9
p130
sI57661
V\u1100\u116e\u11da
p131
sI57662
V\u1100\u116e\u11dd
p132
sI57663
V\u1100\u116e\u11e2
p133
sI57664
V\u1100\u116e\u11e6
p134
sI57665
V\u1100\u116e\u11ec
p135
sI57666
V\u1100\u116e\u11f0
p136
sI57667
V\u1100\u116e\u11ec
p137
sI57668
V\u1100\u116e\u11f6
p138
sI57669
V\u1100\u116e\u11f9
p139
sI57670
V\u1100\u1189
p140
sI57671
V\u1100\u1189\u11ab
p141
sI57672
V\u1100\u1189\u11b7
p142
sI57673
V\u1100\u1189\u11bc
p143
sI57674
V\u1100\u118a
p144
sI57675
V\u1100\u116f\u11c7
p145
sI57676
V\u1100\u116f\u11d9
p146
sI57677
V\u1100\u116f\u11f9
p147
sI57678
V\u1100\u118b
p148
sI57679
V\u1100\u118b\u11ab
p149
sI57680
V\u1100\ud7b5
p150
sI57681
V\u1100\u118c
p151
sI57682
V\u1100\u118d
p152
sI57683
V\u1100\u118d\u11af
p153
sI57684
V\u1100\u1171\u11f0
p154
sI57685
V\u1100\u1171\u11f9
p155
sI57686
V\u1100\u1172\u11d9
p156
sI57687
V\u1100\u1172\u11e2
p157
sI57688
V\u1100\u1172\u11f0
p158
sI57689
V\u1100\u1172\u11f9
p159
sI57690
V\u1100\u118e
p160
sI57691
V\u1100\u118e\u11ab
p161
sI57692
V\u1100\u118f
p162
sI57693
V\u1100\u118f\u11ab
p163
sI57694
V\u1100\u1191
p164
sI57695
V\u1100\u1191\u11a8
p165
sI57696
V\u1100\u1191\u11ab
p166
sI57697
V\u1100\u1191\u11af
p167
sI57698
V\u1100\u1191\u11d9
p168
sI57699
V\u1100\u1191\u11bc
p169
sI57700
V\u1100\u1191\u11f0
p170
sI57701
V\u1100\u1191\u11f9
p171
sI57702
V\u1100\u1192
p172
sI57703
V\u1100\u1192\u11af
p173
sI57704
V\u1100\u1192\u11b0
p174
sI57705
V\u1100\u1192\u11bc
p175
sI57706
V\u1100\u1194
p176
sI57707
V\u1100\u1194\u11a8
p177
sI57708
V\u1100\u1194\u11af
p178
sI57709
V\u1100\u1194\u11d9
p179
sI57710
V\u1100\u1194\u11bc
p180
sI57711
V\u1100\u1194\u11f0
p181
sI57712
V\u1100\u1173\u11c7
p182
sI57713
V\u1100\u1173\ud7cc
p183
sI57714
V\u1100\u1173\u11c9
p184
sI57715
V\u1100\u1173\ud7d3
p185
sI57716
V\u1100\u1173\ud7d4
p186
sI57717
V\u1100\u1173\u11cd
p187
sI57718
V\u1100\u1173\u11d0
p188
sI57719
V\u1100\u1173\u11d9
p189
sI57720
V\u1100\u1173\u11da
p190
sI57721
V\u1100\u1173\u11dd
p191
sI57722
V\u1100\u1173\u11df
p192
sI57723
V\u1100\u1173\u11e1
p193
sI57724
V\u1100\u1173\u11e2
p194
sI57725
V\u1100\u1173\ud7f0
p195
sI57726
V\u1100\u1173\u11eb
p196
sI57727
V\u1100\u1173\u11f0
p197
sI57728
V\u1100\u1173\u11f9
p198
sI57729
V\u1100\ud7ba
p199
sI57730
V\u1100\ud7bb
p200
sI57731
V\u1100\u1195
p201
sI57732
V\u1100\u1196
p202
sI57733
V\u1100\u1174\u11d9
p203
sI57734
V\u1100\u1174\u11f9
p204
sI57735
V\u1100\u1175\u11ca
p205
sI57736
V\u1100\u1175\ud7cd
p206
sI57737
V\u1100\u1175\u11cd
p207
sI57738
V\u1100\u1175\u11d0
p208
sI57739
V\u1100\u1175\u11d9
p209
sI57740
V\u1100\u1175\ud7dc
p210
sI57741
V\u1100\u1175\u11e0
p211
sI57742
V\u1100\u1175\u11e2
p212
sI57743
V\u1100\u1175\ud7e6
p213
sI57744
V\u1100\u1175\ud7e8
p214
sI57745
V\u1100\u1175\u11e4
p215
sI57746
V\u1100\u1175\u11e5
p216
sI57747
V\u1100\u1175\u11e6
p217
sI57748
V\u1100\u1175\u11e7
p218
sI57749
V\u1100\u1175\ud7ec
p219
sI57750
V\u1100\u1175\ud7f0
p220
sI57751
V\u1100\u1175\u11eb
p221
sI57752
V\u1100\u1175\u11f0
p222
sI57753
V\u1100\u1175\u11f9
p223
sI57754
V\u1100\u1198
p224
sI57755
V\u1100\u1199
p225
sI57756
V\u1100\u1199\u11ab
p226
sI57757
V\u1100\u1199\u11bc
p227
sI57758
V\u1100\ud7bf
p228
sI57759
V\u1100\ud7c0
p229
sI57760
V\u1100\ud7c2
p230
sI57761
V\u1100\u119b
p231
sI57762
V\u1100\ud7c3
p232
sI57763
V\u1100\ud7c3\u11ab
p233
sI57764
V\u1100\u119c
p234
sI57765
V\u1100\ud7c4
p235
sI57766
V\u1100\u119d
p236
sI57767
V\u1100\u119e
p237
sI57768
V\u1100\u119e\u11a8
p238
sI57769
V\u1100\u119e\u11a9
p239
sI57770
V\u1100\u119e\u11ab
p240
sI57771
V\u1100\u119e\u11ae
p241
sI57772
V\u1100\u119e\ud7cf
p242
sI57773
V\u1100\u119e\u11af
p243
sI57774
V\u1100\u119e\u11b0
p244
sI57775
V\u1100\u119e\u11cd
p245
sI57776
V\u1100\u119e\u11d0
p246
sI57777
V\u1100\u119e\u11b1
p247
sI57778
V\u1100\u119e\u11b2
p248
sI57779
V\u1100\u119e\u11d3
p249
sI57780
V\u1100\u119e\ud7da
p250
sI57781
V\u1100\u119e\u11d5
p251
sI57782
V\u1100\u119e\u11b3
p252
sI57783
V\u1100\u119e\u11b5
p253
sI57784
V\u1100\u119e\u11b6
p254
sI57785
V\u1100\u119e\u11d9
p255
sI57786
V\u1100\u119e\u11b7
p256
sI57787
V\u1100\u119e\u11e2
p257
sI57788
V\u1100\u119e\u11b8
p258
sI57789
V\u1100\u119e\u11e3
p259
sI57790
V\u1100\u119e\u11e6
p260
sI57791
V\u1100\u119e\u11ba
p261
sI57792
V\u1100\u119e\u11e7
p262
sI57793
V\u1100\u119e\u11ea
p263
sI57794
V\u1100\u119e\u11eb
p264
sI57795
V\u1100\u119e\u11bc
p265
sI57796
V\u1100\u119e\u11f0
p266
sI57797
V\u1100\u119e\u11f1
p267
sI57798
V\u1100\u119e\u11bd
p268
sI57799
V\u1100\u119e\u11be
p269
sI57800
V\u1100\u119e\u11c0
p270
sI57801
V\u1100\u119e\u11c2
p271
sI57802
V\u1100\u119f
p272
sI57803
V\u1100\u119f\u11ab
p273
sI57804
V\u1100\u119f\u11bc
p274
sI57805
V\u1100\u11a1
p275
sI57806
V\u1100\u11a1\u11a8
p276
sI57807
V\u1100\u11a1\u11ab
p277
sI57808
V\u1100\u11a1\u11af
p278
sI57809
V\u1100\u11a1\u11b7
p279
sI57810
V\u1100\u11a1\u11b8
p280
sI57811
V\u1100\u11a1\u11ba
p281
sI57812
V\u1100\u11a1\u11bc
p282
sI57813
V\u1100\u11a1\u11f0
p283
sI57814
V\u1100\u11a1\u11f1
p284
sI57815
V\u1101\u1161\u11f0
p285
sI57816
V\u1101\u1176
p286
sI57817
V\u1101\u1163\u11e2
p287
sI57818
V\u1101\u1165\u11d9
p288
sI57819
V\u1101\u1165\u11e2
p289
sI57820
V\u1101\u1165\u11e6
p290
sI57821
V\u1101\u1165\u11ec
p291
sI57822
V\u1101\u1165\u11ed
p292
sI57823
V\u1101\u117b
p293
sI57824
V\u1101\u1167\u11f0
p294
sI57825
V\u1101\u1169\u11e2
p295
sI57826
V\u1101\u1169\u11f0
p296
sI57827
V\u1101\u116a\u11f0
p297
sI57828
V\u1101\u116d\u11e2
p298
sI57829
V\u1101\u116d\u11f0
p299
sI57830
V\u1101\u1188
p300
sI57831
V\u1101\u116e\u11d9
p301
sI57832
V\u1101\u116e\u11da
p302
sI57833
V\u1101\u116e\u11e2
p303
sI57834
V\u1101\u116e\u11f0
p304
sI57835
V\u1101\u1189
p305
sI57836
V\u1101\u116f\u11d9
p306
sI57837
V\u1101\u116f\u11f0
p307
sI57838
V\u1101\ud7b5
p308
sI57839
V\u1101\u118c
p309
sI57840
V\u1101\u1172\u11d9
p310
sI57841
V\u1101\u1172\u11e2
p311
sI57842
V\u1101\u1172\u11f0
p312
sI57843
V\u1101\u1191
p313
sI57844
V\u1101\u1191\u11ab
p314
sI57845
V\u1101\u1191\u11bc
p315
sI57846
V\u1101\u1191\u11f0
p316
sI57847
V\u1101\u1191\u11f9
p317
sI57848
V\u1101\u1194
p318
sI57849
V\u1101\u1194\u11bc
p319
sI57850
V\u1101\u1173\u11d9
p320
sI57851
V\u1101\u1173\u11f0
p321
sI57852
V\u1101\u1173\u11f6
p322
sI57853
V\u1101\u1174\u11f0
p323
sI57854
V\u1101\u1175\u11e2
p324
sI57855
V\u1101\u1175\u11f0
p325
sI57856
V\u1101\u1175\u11f9
p326
sI57857
V\u1101\u1198
p327
sI57858
V\u1101\u119e
p328
sI57859
V\u1101\u11a1
p329
sI57860
V\u115a\u1165
p330
sI57861
V\u115a\u1173
p331
sI57862
V\u1102\u1161\u11c4
p332
sI57863
V\u1102\u1161\u11c7
p333
sI57864
V\u1102\u1161\ud7cf
p334
sI57865
V\u1102\u1161\u11cd
p335
sI57866
V\u1102\u1161\u11d0
p336
sI57867
V\u1102\u1161\u11d9
p337
sI57868
V\u1102\u1161\u11da
p338
sI57869
V\u1102\u1161\u11dc
p339
sI57870
V\u1102\u1161\u11dd
p340
sI57871
V\u1102\u1161\u11e2
p341
sI57872
V\u1102\u1161\u11e6
p342
sI57873
V\u1102\u1161\u11e7
p343
sI57874
V\u1102\u1161\u11ea
p344
sI57875
V\u1102\u1161\ud7ef
p345
sI57876
V\u1102\u1161\ud7f2
p346
sI57877
V\u1102\u1161\u11eb
p347
sI57878
V\u1102\u1161\u11ec
p348
sI57879
V\u1102\u1161\u11f0
p349
sI57880
V\u1102\u1161\ud7f7
p350
sI57881
V\u1102\u1161\ud7f8
p351
sI57882
V\u1102\u1161\u11f5
p352
sI57883
V\u1102\u1161\u11f9
p353
sI57884
V\u1102\u1176
p354
sI57885
V\u1102\u1177
p355
sI57886
V\u1102\u1162\ud7cf
p356
sI57887
V\u1102\u1162\u11d9
p357
sI57888
V\u1102\u1162\ud7e3
p358
sI57889
V\u1102\u1162\u11e3
p359
sI57890
V\u1102\u1163\u11e2
p360
sI57891
V\u1102\u1163\u11f0
p361
sI57892
V\u1102\u1178
p362
sI57893
V\u1102\u1165\u11d0
p363
sI57894
V\u1102\u1165\u11da
p364
sI57895
V\u1102\u1165\u11db
p365
sI57896
V\u1102\u1165\u11dd
p366
sI57897
V\u1102\u1165\u11e3
p367
sI57898
V\u1102\u1165\u11e5
p368
sI57899
V\u1102\u1165\u11e9
p369
sI57900
V\u1102\u1165\ud7f2
p370
sI57901
V\u1102\u1165\u11f0
p371
sI57902
V\u1102\u117b
p372
sI57903
V\u1102\u117b\u11b7
p373
sI57904
V\u1102\u117a
p374
sI57905
V\u1102\u117a\u11a8
p375
sI57906
V\u1102\u117a\u11c2
p376
sI57907
V\u1102\u1167\u11fd
p377
sI57908
V\u1102\u1167\u11fe
p378
sI57909
V\u1102\u1167\u11c5
p379
sI57910
V\u1102\u1167\u11ff
p380
sI57911
V\u1102\u1167\u11c7
p381
sI57912
V\u1102\u1167\u11d9
p382
sI57913
V\u1102\u1167\u11e7
p383
sI57914
V\u1102\u1167\ud7f2
p384
sI57915
V\u1102\u1167\u11f0
p385
sI57916
V\u1102\u1167\u11f9
p386
sI57917
V\u1102\u1169\u11cd
p387
sI57918
V\u1102\u1169\u11d0
p388
sI57919
V\u1102\u1169\u11d9
p389
sI57920
V\u1102\u1169\u11e2
p390
sI57921
V\u1102\u1169\u11e4
p391
sI57922
V\u1102\u1169\u11e5
p392
sI57923
V\u1102\u1169\u11e6
p393
sI57924
V\u1102\u1169\ud7f2
p394
sI57925
V\u1102\u1169\u11eb
p395
sI57926
V\u1102\u1169\u11f0
p396
sI57927
V\u1102\u1169\ud7f6
p397
sI57928
V\u1102\u1169\u11f3
p398
sI57929
V\u1102\u116a\u11d9
p399
sI57930
V\u1102\u117f
p400
sI57931
V\u1102\u116c\u11f0
p401
sI57932
V\u1102\u116d\u11d9
p402
sI57933
V\u1102\u116d\u11e2
p403
sI57934
V\u1102\u116d\u11f0
p404
sI57935
V\u1102\ud7b2
p405
sI57936
V\u1102\ud7b2\u11bc
p406
sI57937
V\u1102\u1188
p407
sI57938
V\u1102\u116e\u11c6
p408
sI57939
V\u1102\u116e\u11c7
p409
sI57940
V\u1102\u116e\u11c8
p410
sI57941
V\u1102\u116e\u11d0
p411
sI57942
V\u1102\u116e\u11dd
p412
sI57943
V\u1102\u116e\u11e2
p413
sI57944
V\u1102\u116e\u11e6
p414
sI57945
V\u1102\u116e\u11f5
p415
sI57946
V\u1102\u1189
p416
sI57947
V\u1102\u1189\u11ab
p417
sI57948
V\u1102\ud7b5
p418
sI57949
V\u1102\u118c
p419
sI57950
V\u1102\u1171\u11eb
p420
sI57951
V\u1102\ud7b6
p421
sI57952
V\u1102\u1172\u11d9
p422
sI57953
V\u1102\u1172\u11e2
p423
sI57954
V\u1102\u1172\u11f0
p424
sI57955
V\u1102\u118f
p425
sI57956
V\u1102\u1194
p426
sI57957
V\u1102\u1194\u11ab
p427
sI57958
V\u1102\u1194\u11bc
p428
sI57959
V\u1102\u1173\u11c3
p429
sI57960
V\u1102\u1173\u11cd
p430
sI57961
V\u1102\u1173\u11d9
p431
sI57962
V\u1102\u1173\u11f0
p432
sI57963
V\u1102\u1173\ud7f6
p433
sI57964
V\u1102\u1196
p434
sI57965
V\u1102\u1174\u11f0
p435
sI57966
V\u1102\u1197
p436
sI57967
V\u1102\u1175\u11c3
p437
sI57968
V\u1102\u1175\u11ce
p438
sI57969
V\u1102\u1175\u11d0
p439
sI57970
V\u1102\u1175\ud7d9
p440
sI57971
V\u1102\u1175\u11d9
p441
sI57972
V\u1102\u1175\u11dd
p442
sI57973
V\u1102\u1175\u11e2
p443
sI57974
V\u1102\u1175\u11e4
p444
sI57975
V\u1102\u1175\u11e5
p445
sI57976
V\u1102\u1175\u11e6
p446
sI57977
V\u1102\u1175\u11eb
p447
sI57978
V\u1102\u1175\u11f0
p448
sI57979
V\u1102\u1175\u11f9
p449
sI57980
V\u1102\u1198
p450
sI57981
V\u1102\u1199
p451
sI57982
V\u1102\u1199\u11ab
p452
sI57983
V\u1102\u1199\u11bc
p453
sI57984
V\u1102\ud7bf
p454
sI57985
V\u1102\ud7c0
p455
sI57986
V\u1102\u119b
p456
sI57987
V\u1102\u119e
p457
sI57988
V\u1102\u119e\u11a8
p458
sI57989
V\u1102\u119e\u11ab
p459
sI57990
V\u1102\u119e\u11ae
p460
sI57991
V\u1102\u119e\ud7d3
p461
sI57992
V\u1102\u119e\u11af
p462
sI57993
V\u1102\u119e\u11b0
p463
sI57994
V\u1102\u119e\u11b1
p464
sI57995
V\u1102\u119e\u11b2
p465
sI57996
V\u1102\u119e\u11b3
p466
sI57997
V\u1102\u119e\u11d7
p467
sI57998
V\u1102\u119e\u11b6
p468
sI57999
V\u1102\u119e\u11d9
p469
sI58000
V\u1102\u119e\u11b7
p470
sI58001
V\u1102\u119e\u11b8
p471
sI58002
V\u1102\u119e\u11ba
p472
sI58003
V\u1102\u119e\ud7f0
p473
sI58004
V\u1102\u119e\u11eb
p474
sI58005
V\u1102\u119e\u11bc
p475
sI58006
V\u1102\u119e\u11f0
p476
sI58007
V\u1102\u119e\u11bd
p477
sI58008
V\u1102\u119e\u11be
p478
sI58009
V\u1102\u11a1
p479
sI58010
V\u1102\u11a1\u11a8
p480
sI58011
V\u1102\u11a1\u11ab
p481
sI58012
V\u1102\u11a1\u11ae
p482
sI58013
V\u1102\u11a1\u11af
p483
sI58014
V\u1102\u11a1\u11b7
p484
sI58015
V\u1102\u11a1\u11b8
p485
sI58016
V\u1102\u11a1\u11ba
p486
sI58017
V\u1102\u11a1\u11e8
p487
sI58018
V\u1102\u11a1\u11bc
p488
sI58019
V\u1102\u11a1\u11f0
p489
sI58020
V\u1102\u11a1\u11c2
p490
sI58021
V\u1113\u1161
p491
sI58022
V\u1113\u1162
p492
sI58023
V\u1113\u1163
p493
sI58024
V\u1113\u1165
p494
sI58025
V\u1113\u1166
p495
sI58026
V\u1113\u1167
p496
sI58027
V\u1113\u1168
p497
sI58028
V\u1113\u1168\u11ab
p498
sI58029
V\u1113\u1169
p499
sI58030
V\u1113\u116a
p500
sI58031
V\u1113\u116b
p501
sI58032
V\u1113\u116c
p502
sI58033
V\u1113\u116d
p503
sI58034
V\u1113\u116e
p504
sI58035
V\u1113\u116f
p505
sI58036
V\u1113\u1170
p506
sI58037
V\u1113\ud7b5
p507
sI58038
V\u1113\u118c
p508
sI58039
V\u1113\u1171
p509
sI58040
V\u1113\u1172
p510
sI58041
V\u1113\u1194
p511
sI58042
V\u1113\u1173
p512
sI58043
V\u1113\u1174
p513
sI58044
V\u1113\u1175
p514
sI58045
V\u1113\u1198
p515
sI58046
V\u1113\u119e
p516
sI58047
V\u1113\u11a1
p517
sI58048
V\u1114\u1161
p518
sI58049
V\u1114\u1163
p519
sI58050
V\u1114\u1163\u11bc
p520
sI58051
V\u1114\u1165
p521
sI58052
V\u1114\u1166
p522
sI58053
V\u1114\u1169
p523
sI58054
V\u1114\u116e
p524
sI58055
V\u1114\u1173
p525
sI58056
V\u1114\u1173\u11ab
p526
sI58057
V\u1114\u119e
p527
sI58058
V\u1114\u119e\u11ab
p528
sI58059
V\u1115\u1161
p529
sI58060
V\u1115\u1161\u11ab
p530
sI58061
V\u1115\u1162
p531
sI58062
V\u1115\u1163
p532
sI58063
V\u1115\u1165
p533
sI58064
V\u1115\u1166
p534
sI58065
V\u1115\u1166\u11ab
p535
sI58066
V\u1115\u1167
p536
sI58067
V\u1115\u1168
p537
sI58068
V\u1115\u1169
p538
sI58069
V\u1115\u1169\u11ab
p539
sI58070
V\u1115\u116a
p540
sI58071
V\u1115\u116b
p541
sI58072
V\u1115\u116c
p542
sI58073
V\u1115\u116d
p543
sI58074
V\u1115\u116e
p544
sI58075
V\u1115\u116f
p545
sI58076
V\u1115\u1170
p546
sI58077
V\u1115\ud7b5
p547
sI58078
V\u1115\u118c
p548
sI58079
V\u1115\u1171
p549
sI58080
V\u1115\u1172
p550
sI58081
V\u1115\u1194
p551
sI58082
V\u1115\u1173
p552
sI58083
V\u1115\u1174
p553
sI58084
V\u1115\u1175
p554
sI58085
V\u1115\u1198
p555
sI58086
V\u1115\u119e
p556
sI58087
V\u1115\u11a1
p557
sI58088
V\u1116\u1161
p558
sI58089
V\u1116\u1162
p559
sI58090
V\u1116\u1163
p560
sI58091
V\u1116\u1165
p561
sI58092
V\u1116\u1166
p562
sI58093
V\u1116\u1167
p563
sI58094
V\u1116\u1168
p564
sI58095
V\u1116\u1169
p565
sI58096
V\u1116\u116a
p566
sI58097
V\u1116\u116b
p567
sI58098
V\u1116\u116c
p568
sI58099
V\u1116\u116d
p569
sI58100
V\u1116\u116e
p570
sI58101
V\u1116\u116f
p571
sI58102
V\u1116\u1170
p572
sI58103
V\u1116\ud7b5
p573
sI58104
V\u1116\u118c
p574
sI58105
V\u1116\u1171
p575
sI58106
V\u1116\u1172
p576
sI58107
V\u1116\u1194
p577
sI58108
V\u1116\u1173
p578
sI58109
V\u1116\u1174
p579
sI58110
V\u1116\u1175
p580
sI58111
V\u1116\u1198
p581
sI58112
V\u1116\u119e
p582
sI58113
V\u1116\u11a1
p583
sI58114
V\u115b\u1175
p584
sI58115
V\u115b\u1198
p585
sI58116
V\u115c\u1173
p586
sI58117
V\u115c\u1175
p587
sI58118
V\u115d\u1163
p588
sI58119
V\u115d\u1163\u11bc
p589
sI58120
V\u115d\u1169
p590
sI58121
V\u115d\u1172
p591
sI58122
V\u115d\u1172\u11ab
p592
sI58123
V\u115d\u1175
p593
sI58124
V\u115d\u1175\u11bc
p594
sI58125
V\u1103\u1161\u11c7
p595
sI58126
V\u1103\u1161\u11ca
p596
sI58127
V\u1103\u1161\ud7cd
p597
sI58128
V\u1103\u1161\u11cd
p598
sI58129
V\u1103\u1161\u11d0
p599
sI58130
V\u1103\u1161\u11d9
p600
sI58131
V\u1103\u1161\u11db
p601
sI58132
V\u1103\u1161\u11dd
p602
sI58133
V\u1103\u1161\u11e2
p603
sI58134
V\u1103\u1161\u11e5
p604
sI58135
V\u1103\u1161\u11e6
p605
sI58136
V\u1103\u1161\u11e7
p606
sI58137
V\u1103\u1161\ud7f2
p607
sI58138
V\u1103\u1161\u11eb
p608
sI58139
V\u1103\u1161\u11f0
p609
sI58140
V\u1103\u1161\u11f1
p610
sI58141
V\u1103\u1161\ud7f6
p611
sI58142
V\u1103\u1161\u11f9
p612
sI58143
V\u1103\u1176
p613
sI58144
V\u1103\u1176\u11af
p614
sI58145
V\u1103\u1162\u11f0
p615
sI58146
V\u1103\u1163\u11e2
p616
sI58147
V\u1103\u1163\u11f0
p617
sI58148
V\u1103\u1163\u11f1
p618
sI58149
V\u1103\u1178
p619
sI58150
V\u1103\u1165\u11dd
p620
sI58151
V\u1103\u1165\u11e4
p621
sI58152
V\u1103\u1165\u11e6
p622
sI58153
V\u1103\u1165\u11eb
p623
sI58154
V\u1103\u1165\u11f0
p624
sI58155
V\u1103\u117a
p625
sI58156
V\u1103\u117b
p626
sI58157
V\u1103\u117b\u11af
p627
sI58158
V\u1103\u117c
p628
sI58159
V\u1103\u117c\u11af
p629
sI58160
V\u1103\u117c\u11b7
p630
sI58161
V\u1103\u1166\u11c6
p631
sI58162
V\u1103\u1166\ud7e3
p632
sI58163
V\u1103\u1167\u11d9
p633
sI58164
V\u1103\u1167\u11e2
p634
sI58165
V\u1103\u1167\u11f0
p635
sI58166
V\u1103\u1167\u11f9
p636
sI58167
V\u1103\u1169\u11c6
p637
sI58168
V\u1103\u1169\u11ca
p638
sI58169
V\u1103\u1169\ud7d4
p639
sI58170
V\u1103\u1169\u11d0
p640
sI58171
V\u1103\u1169\u11d6
p641
sI58172
V\u1103\u1169\u11d8
p642
sI58173
V\u1103\u1169\u11d9
p643
sI58174
V\u1103\u1169\u11e2
p644
sI58175
V\u1103\u1169\u11e6
p645
sI58176
V\u1103\u1169\u11e7
p646
sI58177
V\u1103\u1169\ud7ec
p647
sI58178
V\u1103\u1169\ud7f2
p648
sI58179
V\u1103\u1169\u11eb
p649
sI58180
V\u1103\u1169\u11f0
p650
sI58181
V\u1103\u1169\u11f1
p651
sI58182
V\u1103\u116a\u11d9
p652
sI58183
V\u1103\u116a\u11f0
p653
sI58184
V\u1103\u1182
p654
sI58185
V\u1103\u1182\u11b7
p655
sI58186
V\u1103\u116d\u11e2
p656
sI58187
V\u1103\u116d\ud7f5
p657
sI58188
V\u1103\u116d\u11f0
p658
sI58189
V\u1103\u1188
p659
sI58190
V\u1103\u1188\u11ab
p660
sI58191
V\u1103\u1188\u11af
p661
sI58192
V\u1103\u116e\u11ce
p662
sI58193
V\u1103\u116e\u11d0
p663
sI58194
V\u1103\u116e\u11d9
p664
sI58195
V\u1103\u116e\u11da
p665
sI58196
V\u1103\u116e\u11e2
p666
sI58197
V\u1103\u116e\u11f0
p667
sI58198
V\u1103\u1189
p668
sI58199
V\u1103\u1189\u11ab
p669
sI58200
V\u1103\u116f\u11f9
p670
sI58201
V\u1103\ud7b5
p671
sI58202
V\u1103\u118c
p672
sI58203
V\u1103\u1171\u11e6
p673
sI58204
V\u1103\u1171\u11f9
p674
sI58205
V\u1103\u1172\u11d9
p675
sI58206
V\u1103\u1172\u11e2
p676
sI58207
V\u1103\u1172\u11f0
p677
sI58208
V\u1103\u1172\u11f1
p678
sI58209
V\u1103\u1191
p679
sI58210
V\u1103\u1191\u11ab
p680
sI58211
V\u1103\u1191\u11af
p681
sI58212
V\u1103\u1191\u11d9
p682
sI58213
V\u1103\u1191\u11bc
p683
sI58214
V\u1103\u1192
p684
sI58215
V\u1103\u1192\u11bc
p685
sI58216
V\u1103\u1194
p686
sI58217
V\u1103\u1194\u11ab
p687
sI58218
V\u1103\u1194\u11bc
p688
sI58219
V\u1103\u1173\u11cd
p689
sI58220
V\u1103\u1173\u11ce
p690
sI58221
V\u1103\u1173\u11d0
p691
sI58222
V\u1103\u1173\u11d9
p692
sI58223
V\u1103\u1173\u11da
p693
sI58224
V\u1103\u1173\u11e2
p694
sI58225
V\u1103\u1173\u11e3
p695
sI58226
V\u1103\u1173\u11e6
p696
sI58227
V\u1103\u1173\u11eb
p697
sI58228
V\u1103\u1173\u11f0
p698
sI58229
V\u1103\u1173\u11f1
p699
sI58230
V\u1103\u1195
p700
sI58231
V\u1103\u1196
p701
sI58232
V\u1103\u1174\u11d9
p702
sI58233
V\u1103\u1174\u11f9
p703
sI58234
V\u1103\u1175\u11d0
p704
sI58235
V\u1103\u1175\u11d9
p705
sI58236
V\u1103\u1175\u11e2
p706
sI58237
V\u1103\u1175\u11e4
p707
sI58238
V\u1103\u1175\u11e5
p708
sI58239
V\u1103\u1175\ud7f1
p709
sI58240
V\u1103\u1175\u11eb
p710
sI58241
V\u1103\u1175\u11f0
p711
sI58242
V\u1103\u1175\u11f9
p712
sI58243
V\u1103\u1198
p713
sI58244
V\u1103\u1199
p714
sI58245
V\u1103\u1199\u11ab
p715
sI58246
V\u1103\u1199\u11bc
p716
sI58247
V\u1103\ud7bf
p717
sI58248
V\u1103\ud7c0
p718
sI58249
V\u1103\u119b
p719
sI58250
V\u1103\u119e
p720
sI58251
V\u1103\u119e\u11a8
p721
sI58252
V\u1103\u119e\u11c3
p722
sI58253
V\u1103\u119e\u11ab
p723
sI58254
V\u1103\u119e\u11ae
p724
sI58255
V\u1103\u119e\u11af
p725
sI58256
V\u1103\u119e\u11b0
p726
sI58257
V\u1103\u119e\u11cc
p727
sI58258
V\u1103\u119e\u11b1
p728
sI58259
V\u1103\u119e\u11b2
p729
sI58260
V\u1103\u119e\u11b3
p730
sI58261
V\u1103\u119e\u11b6
p731
sI58262
V\u1103\u119e\u11d9
p732
sI58263
V\u1103\u119e\u11b7
p733
sI58264
V\u1103\u119e\u11da
p734
sI58265
V\u1103\u119e\ud7de
p735
sI58266
V\u1103\u119e\ud7df
p736
sI58267
V\u1103\u119e\u11b8
p737
sI58268
V\u1103\u119e\u11e3
p738
sI58269
V\u1103\u119e\u11e6
p739
sI58270
V\u1103\u119e\u11ba
p740
sI58271
V\u1103\u119e\u11e7
p741
sI58272
V\u1103\u119e\u11e8
p742
sI58273
V\u1103\u119e\u11e9
p743
sI58274
V\u1103\u119e\u11ea
p744
sI58275
V\u1103\u119e\u11eb
p745
sI58276
V\u1103\u119e\u11bc
p746
sI58277
V\u1103\u119e\u11f0
p747
sI58278
V\u1103\u119e\u11bd
p748
sI58279
V\u1103\u119e\u11be
p749
sI58280
V\u1103\u11a1
p750
sI58281
V\u1103\u11a1\u11a8
p751
sI58282
V\u1103\u11a1\u11ab
p752
sI58283
V\u1103\u11a1\u11ae
p753
sI58284
V\u1103\u11a1\u11af
p754
sI58285
V\u1103\u11a1\u11d9
p755
sI58286
V\u1103\u11a1\u11b7
p756
sI58287
V\u1103\u11a1\u11b8
p757
sI58288
V\u1103\u11a1\u11ba
p758
sI58289
V\u1103\u11a1\u11eb
p759
sI58290
V\u1103\u11a1\u11bc
p760
sI58291
V\u1103\u11a1\u11f0
p761
sI58292
V\u1117\u1173
p762
sI58293
V\u1117\u1173\u11af
p763
sI58294
V\u1117\u1175
p764
sI58295
V\u1117\u1175\u11af
p765
sI58296
V\u1104\u1161\u11d0
p766
sI58297
V\u1104\u1161\u11d8
p767
sI58298
V\u1104\u1161\u11d9
p768
sI58299
V\u1104\u1161\u11e2
p769
sI58300
V\u1104\u1161\u11e6
p770
sI58301
V\u1104\u1161\u11f0
p771
sI58302
V\u1104\u1161\u11f9
p772
sI58303
V\u1104\u1163\u11e2
p773
sI58304
V\u1104\u1163\u11f0
p774
sI58305
V\u1104\u117b
p775
sI58306
V\u1104\u117c
p776
sI58307
V\u1104\u117c\u11af
p777
sI58308
V\u1104\u117c\u11b2
p778
sI58309
V\u1104\u1167\u11d9
p779
sI58310
V\u1104\u1167\u11f0
p780
sI58311
V\u1104\u1169\u11d9
p781
sI58312
V\u1104\u1169\u11e2
p782
sI58313
V\u1104\u1169\u11f0
p783
sI58314
V\u1104\u1169\u11f9
p784
sI58315
V\u1104\u116a\u11d9
p785
sI58316
V\u1104\u116a\u11f0
p786
sI58317
V\u1104\u117f
p787
sI58318
V\u1104\u116d\u11e2
p788
sI58319
V\u1104\u116e\u11e2
p789
sI58320
V\u1104\u116e\u11f0
p790
sI58321
V\u1104\u116e\u11f9
p791
sI58322
V\u1104\ud7b5
p792
sI58323
V\u1104\u118c
p793
sI58324
V\u1104\u1171\u11f9
p794
sI58325
V\u1104\u1172\u11d9
p795
sI58326
V\u1104\u1172\u11e2
p796
sI58327
V\u1104\u1172\u11f0
p797
sI58328
V\u1104\u1191
p798
sI58329
V\u1104\u1191\u11ab
p799
sI58330
V\u1104\u1194
p800
sI58331
V\u1104\u1194\u11bc
p801
sI58332
V\u1104\u1173\ud7cd
p802
sI58333
V\u1104\u1173\u11e2
p803
sI58334
V\u1104\u1173\u11f0
p804
sI58335
V\u1104\u1173\u11f9
p805
sI58336
V\u1104\u1174\u11f9
p806
sI58337
V\u1104\u1175\u11d9
p807
sI58338
V\u1104\u1175\u11f0
p808
sI58339
V\u1104\u1175\u11f9
p809
sI58340
V\u1104\u1198
p810
sI58341
V\u1104\u119e
p811
sI58342
V\u1104\u119e\u11a8
p812
sI58343
V\u1104\u119e\u11ab
p813
sI58344
V\u1104\u119e\u11af
p814
sI58345
V\u1104\u119e\u11b7
p815
sI58346
V\u1104\u119e\u11ba
p816
sI58347
V\u1104\u11a1
p817
sI58348
V\u1104\u11a1\u11a8
p818
sI58349
V\u1104\u11a1\u11af
p819
sI58350
V\u1104\u11a1\u11bc
p820
sI58351
V\u1104\u11a1\u11f0
p821
sI58352
V\u115e\u1175
p822
sI58353
V\u115e\u1175\u11bc
p823
sI58354
V\u115e\u1175\u11ef
p824
sI58355
V\ua960\u1161
p825
sI58356
V\ua960\u1161\u11af
p826
sI58357
V\ua961\u1161
p827
sI58358
V\ua961\u1162
p828
sI58359
V\ua961\u116e
p829
sI58360
V\ua961\u116e\u11af
p830
sI58361
V\ua962\u1172
p831
sI58362
V\ua962\u1172\u11af
p832
sI58363
V\ua962\u1172\u11bc
p833
sI58364
V\ua962\u1173
p834
sI58365
V\ua962\u1175
p835
sI58366
V\ua962\u1175\u11a8
p836
sI58367
V\ua963\u1163
p837
sI58368
V\ua963\u1163\u11bc
p838
sI58369
V\ua963\u119e
p839
sI58370
V\u1105\u1161\u11d0
p840
sI58371
V\u1105\u1161\u11d9
p841
sI58372
V\u1105\u1161\ud7e0
p842
sI58373
V\u1105\u1161\u11dd
p843
sI58374
V\u1105\u1161\u11e2
p844
sI58375
V\u1105\u1161\u11e6
p845
sI58376
V\u1105\u1161\u11e7
p846
sI58377
V\u1105\u1161\ud7ec
p847
sI58378
V\u1105\u1161\u11eb
p848
sI58379
V\u1105\u1161\u11f0
p849
sI58380
V\u1105\u1161\u11ec
p850
sI58381
V\u1105\u1161\u11f5
p851
sI58382
V\u1105\u1161\u11f9
p852
sI58383
V\u1105\u1176
p853
sI58384
V\u1105\u1176\u11af
p854
sI58385
V\u1105\u1177
p855
sI58386
V\u1105\u1162\u11f0
p856
sI58387
V\u1105\u1163\u11e2
p857
sI58388
V\u1105\u1163\u11f0
p858
sI58389
V\u1105\u1178
p859
sI58390
V\u1105\u1165\ud7e0
p860
sI58391
V\u1105\u1165\u11e6
p861
sI58392
V\u1105\u1165\ud7f2
p862
sI58393
V\u1105\u1165\u11f0
p863
sI58394
V\u1105\u1165\u11f5
p864
sI58395
V\u1105\u117a
p865
sI58396
V\u1105\u117b
p866
sI58397
V\u1105\u117b\u11af
p867
sI58398
V\u1105\u1166\u11f0
p868
sI58399
V\u1105\u1167\u11c7
p869
sI58400
V\u1105\u1167\u11d9
p870
sI58401
V\u1105\u1167\u11e2
p871
sI58402
V\u1105\u1167\u11e6
p872
sI58403
V\u1105\u1167\u11f0
p873
sI58404
V\u1105\u1167\u11f9
p874
sI58405
V\u1105\u1169\ud7d0
p875
sI58406
V\u1105\u1169\u11d9
p876
sI58407
V\u1105\u1169\u11dd
p877
sI58408
V\u1105\u1169\u11e2
p878
sI58409
V\u1105\u1169\ud7e5
p879
sI58410
V\u1105\u1169\u11e6
p880
sI58411
V\u1105\u1169\ud7f0
p881
sI58412
V\u1105\u1169\u11f0
p882
sI58413
V\u1105\u1169\u11f1
p883
sI58414
V\u1105\u116a\u11d9
p884
sI58415
V\u1105\u116a\u11f0
p885
sI58416
V\u1105\u1182
p886
sI58417
V\u1105\u116d\u11d9
p887
sI58418
V\u1105\u116d\u11dd
p888
sI58419
V\u1105\u116d\u11e2
p889
sI58420
V\u1105\u116d\u11f0
p890
sI58421
V\u1105\u1186
p891
sI58422
V\u1105\u1187
p892
sI58423
V\u1105\u1188
p893
sI58424
V\u1105\u116e\u11d9
p894
sI58425
V\u1105\u116e\u11dd
p895
sI58426
V\u1105\u116e\u11e2
p896
sI58427
V\u1105\u116e\u11e4
p897
sI58428
V\u1105\u116e\u11f0
p898
sI58429
V\u1105\u116e\u11f9
p899
sI58430
V\u1105\u1189
p900
sI58431
V\u1105\u1189\u11ab
p901
sI58432
V\u1105\ud7b5
p902
sI58433
V\u1105\u118c
p903
sI58434
V\u1105\u118d
p904
sI58435
V\u1105\u1172\u11d9
p905
sI58436
V\u1105\u1172\u11e2
p906
sI58437
V\u1105\u1172\u11f0
p907
sI58438
V\u1105\u1172\u11f9
p908
sI58439
V\u1105\u1191
p909
sI58440
V\u1105\u1191\u11ab
p910
sI58441
V\u1105\u1191\u11af
p911
sI58442
V\u1105\u1191\u11d9
p912
sI58443
V\u1105\u1194
p913
sI58444
V\u1105\u1194\u11bc
p914
sI58445
V\u1105\u1173\ud7d3
p915
sI58446
V\u1105\u1173\u11d0
p916
sI58447
V\u1105\u1173\u11d9
p917
sI58448
V\u1105\u1173\ud7e0
p918
sI58449
V\u1105\u1173\u11dd
p919
sI58450
V\u1105\u1173\u11e2
p920
sI58451
V\u1105\u1173\u11e6
p921
sI58452
V\u1105\u1173\u11f0
p922
sI58453
V\u1105\u1195
p923
sI58454
V\u1105\u1196
p924
sI58455
V\u1105\u1174\u11f9
p925
sI58456
V\u1105\u1175\u11c7
p926
sI58457
V\u1105\u1175\u11d9
p927
sI58458
V\u1105\u1175\u11dd
p928
sI58459
V\u1105\u1175\u11e2
p929
sI58460
V\u1105\u1175\u11e6
p930
sI58461
V\u1105\u1175\u11f0
p931
sI58462
V\u1105\u1175\u11f9
p932
sI58463
V\u1105\u1198
p933
sI58464
V\u1105\u1199
p934
sI58465
V\u1105\u1199\u11ab
p935
sI58466
V\u1105\u1199\u11bc
p936
sI58467
V\u1105\ud7bd
p937
sI58468
V\u1105\ud7bf
p938
sI58469
V\u1105\ud7c0
p939
sI58470
V\u1105\u119a
p940
sI58471
V\u1105\u119a\u11af
p941
sI58472
V\u1105\ud7c2
p942
sI58473
V\u1105\u119b
p943
sI58474
V\u1105\u119b\u11af
p944
sI58475
V\u1105\ud7c4
p945
sI58476
V\u1105\u119e
p946
sI58477
V\u1105\u119e\u11a8
p947
sI58478
V\u1105\u119e\u11ab
p948
sI58479
V\u1105\u119e\u11ae
p949
sI58480
V\u1105\u119e\u11af
p950
sI58481
V\u1105\u119e\u11b0
p951
sI58482
V\u1105\u119e\u11b1
p952
sI58483
V\u1105\u119e\u11b3
p953
sI58484
V\u1105\u119e\u11d7
p954
sI58485
V\u1105\u119e\u11b6
p955
sI58486
V\u1105\u119e\u11d9
p956
sI58487
V\u1105\u119e\u11b7
p957
sI58488
V\u1105\u119e\ud7e0
p958
sI58489
V\u1105\u119e\u11dc
p959
sI58490
V\u1105\u119e\u11dd
p960
sI58491
V\u1105\u119e\u11b8
p961
sI58492
V\u1105\u119e\u11b9
p962
sI58493
V\u1105\u119e\u11e6
p963
sI58494
V\u1105\u119e\u11ba
p964
sI58495
V\u1105\u119e\u11bb
p965
sI58496
V\u1105\u119e\u11eb
p966
sI58497
V\u1105\u119e\u11f0
p967
sI58498
V\u1105\u119e\u11bd
p968
sI58499
V\u1105\u119e\u11be
p969
sI58500
V\u1105\u119e\u11c0
p970
sI58501
V\u1105\u119e\u11c2
p971
sI58502
V\u1105\ud7c5
p972
sI58503
V\u1105\u11a1
p973
sI58504
V\u1105\u11a1\u11a8
p974
sI58505
V\u1105\u11a1\u11ab
p975
sI58506
V\u1105\u11a1\u11ae
p976
sI58507
V\u1105\u11a1\u11af
p977
sI58508
V\u1105\u11a1\u11b7
p978
sI58509
V\u1105\u11a1\u11ba
p979
sI58510
V\u1105\u11a1\u11bc
p980
sI58511
V\u1105\u11a1\u11f0
p981
sI58512
V\ua964\u1161
p982
sI58513
V\ua964\u1169
p983
sI58514
V\ua964\u1169\u11ba
p984
sI58515
V\ua965\u1161
p985
sI58516
V\u1118\u1161
p986
sI58517
V\u1118\u1161\u11a8
p987
sI58518
V\u1118\u1161\u11ab
p988
sI58519
V\u1118\u1161\u11bc
p989
sI58520
V\u1118\u1165
p990
sI58521
V\u1118\u1166
p991
sI58522
V\u1118\u1166\u11af
p992
sI58523
V\u1118\u1166\u11b8
p993
sI58524
V\u1118\u1169
p994
sI58525
V\u1118\u1169\u11a8
p995
sI58526
V\u1118\u1169\u11ab
p996
sI58527
V\u1118\u1169\u11b7
p997
sI58528
V\u1118\u1169\u11ba
p998
sI58529
V\u1118\u116d
p999
sI58530
V\u1118\u116d\u11ab
p1000
sI58531
V\u1118\u116e
p1001
sI58532
V\u1118\u1172
p1002
sI58533
V\u1118\u1172\u11a8
p1003
sI58534
V\u1118\u1173
p1004
sI58535
V\u1118\u1174
p1005
sI58536
V\u1118\u1174\u11a8
p1006
sI58537
V\u1118\u1174\u11ab
p1007
sI58538
V\u1118\u1174\u11b8
p1008
sI58539
V\u1118\u119e
p1009
sI58540
V\u1118\u119e\u11ab
p1010
sI58541
V\u1118\u119e\u11bc
p1011
sI58542
V\u1118\u11a1
p1012
sI58543
V\u1118\u11a1\u11a8
p1013
sI58544
V\u1118\u11a1\u11b7
p1014
sI58545
V\ua967\u1161
p1015
sI58546
V\u1119\u1161
p1016
sI58547
V\u1119\u1161\u11a8
p1017
sI58548
V\u1119\u1161\u11ab
p1018
sI58549
V\u1119\u1161\u11bc
p1019
sI58550
V\u1119\u1176
p1020
sI58551
V\u1119\u1162
p1021
sI58552
V\u1119\u1162\u11ab
p1022
sI58553
V\u1119\u1163
p1023
sI58554
V\u1119\u1163\u11bc
p1024
sI58555
V\u1119\u1178
p1025
sI58556
V\u1119\u1165
p1026
sI58557
V\u1119\u1165\u11ab
p1027
sI58558
V\u1119\u1165\u11bc
p1028
sI58559
V\u1119\u117b
p1029
sI58560
V\u1119\u1166
p1030
sI58561
V\u1119\u1166\u11a8
p1031
sI58562
V\u1119\u1167
p1032
sI58563
V\u1119\u1167\u11a8
p1033
sI58564
V\u1119\u1168
p1034
sI58565
V\u1119\u1168\u11ab
p1035
sI58566
V\u1119\u1169
p1036
sI58567
V\u1119\u1169\u11bc
p1037
sI58568
V\u1119\u116d
p1038
sI58569
V\u1119\u116e
p1039
sI58570
V\u1119\u116e\u11ab
p1040
sI58571
V\u1119\u116e\u11bc
p1041
sI58572
V\u1119\u1189
p1042
sI58573
V\u1119\u1189\u11ab
p1043
sI58574
V\u1119\u116f
p1044
sI58575
V\u1119\u1170
p1045
sI58576
V\u1119\u1171
p1046
sI58577
V\u1119\u1172
p1047
sI58578
V\u1119\u118f
p1048
sI58579
V\u1119\u1190
p1049
sI58580
V\u1119\u1173
p1050
sI58581
V\u1119\u1173\u11af
p1051
sI58582
V\u1119\u1173\u11d0
p1052
sI58583
V\u1119\u1173\u11bc
p1053
sI58584
V\u1119\u1175
p1054
sI58585
V\u1119\u1175\u11ab
p1055
sI58586
V\u1119\u1175\u11bc
p1056
sI58587
V\u1119\u119b
p1057
sI58588
V\ua968\u1161
p1058
sI58589
V\ua968\u1161\u11ab
p1059
sI58590
V\ua969\u1161
p1060
sI58591
V\ua96a\u1161
p1061
sI58592
V\ua96b\u119e
p1062
sI58593
V\ua96b\u11a1
p1063
sI58594
V\ua96c\u1169
p1064
sI58595
V\ua96c\u1169\u11a8
p1065
sI58596
V\ua96c\u1173
p1066
sI58597
V\ua96d\u1165
p1067
sI58598
V\ua96d\u1166
p1068
sI58599
V\ua96d\u1172
p1069
sI58600
V\ua96d\u1172\u11af
p1070
sI58601
V\ua96e\u1161
p1071
sI58602
V\u111a\u1161
p1072
sI58603
V\u111a\u1161\u11ab
p1073
sI58604
V\u111a\u1163
p1074
sI58605
V\u111a\u1163\u11bc
p1075
sI58606
V\u111a\u1169
p1076
sI58607
V\u111a\u116a
p1077
sI58608
V\u111a\u1175
p1078
sI58609
V\u1106\u1161\u11fe
p1079
sI58610
V\u1106\u1161\u11c6
p1080
sI58611
V\u1106\u1161\u11c7
p1081
sI58612
V\u1106\u1161\ud7d4
p1082
sI58613
V\u1106\u1161\u11cd
p1083
sI58614
V\u1106\u1161\u11d0
p1084
sI58615
V\u1106\u1161\u11d8
p1085
sI58616
V\u1106\u1161\u11d9
p1086
sI58617
V\u1106\u1161\u11e2
p1087
sI58618
V\u1106\u1161\u11e6
p1088
sI58619
V\u1106\u1161\u11e8
p1089
sI58620
V\u1106\u1161\ud7ed
p1090
sI58621
V\u1106\u1161\ud7f0
p1091
sI58622
V\u1106\u1161\ud7f1
p1092
sI58623
V\u1106\u1161\u11eb
p1093
sI58624
V\u1106\u1161\u11f0
p1094
sI58625
V\u1106\u1161\u11f9
p1095
sI58626
V\u1106\u1176
p1096
sI58627
V\u1106\u1177
p1097
sI58628
V\u1106\u1162\u11f0
p1098
sI58629
V\u1106\u1163\u11e2
p1099
sI58630
V\u1106\u1178
p1100
sI58631
V\u1106\u1165\u11c6
p1101
sI58632
V\u1106\u1165\u11cd
p1102
sI58633
V\u1106\u1165\u11d0
p1103
sI58634
V\u1106\u1165\u11d9
p1104
sI58635
V\u1106\u1165\u11f0
p1105
sI58636
V\u1106\u1165\u11f9
p1106
sI58637
V\u1106\u117a
p1107
sI58638
V\u1106\u117c
p1108
sI58639
V\u1106\u117c\u11af
p1109
sI58640
V\u1106\u1166\u11d9
p1110
sI58641
V\u1106\u1167\u11d9
p1111
sI58642
V\u1106\u1167\u11e2
p1112
sI58643
V\u1106\u1167\u11eb
p1113
sI58644
V\u1106\u1167\u11f0
p1114
sI58645
V\u1106\u1167\ud7f6
p1115
sI58646
V\u1106\u1167\u11f9
p1116
sI58647
V\u1106\u1169\u11c6
p1117
sI58648
V\u1106\u1169\u11d0
p1118
sI58649
V\u1106\u1169\u11d9
p1119
sI58650
V\u1106\u1169\u11dd
p1120
sI58651
V\u1106\u1169\u11e2
p1121
sI58652
V\u1106\u1169\ud7f0
p1122
sI58653
V\u1106\u1169\u11eb
p1123
sI58654
V\u1106\u1169\u11f0
p1124
sI58655
V\u1106\u117f
p1125
sI58656
V\u1106\u117f\u11ab
p1126
sI58657
V\u1106\u1182
p1127
sI58658
V\u1106\ud7b1
p1128
sI58659
V\u1106\u1183
p1129
sI58660
V\u1106\u116d\u11e2
p1130
sI58661
V\u1106\u1187
p1131
sI58662
V\u1106\u1188
p1132
sI58663
V\u1106\u116e\u11c6
p1133
sI58664
V\u1106\u116e\u11c7
p1134
sI58665
V\u1106\u116e\u11d0
p1135
sI58666
V\u1106\u116e\u11d9
p1136
sI58667
V\u1106\u116e\u11dd
p1137
sI58668
V\u1106\u116e\u11e2
p1138
sI58669
V\u1106\u116e\u11e7
p1139
sI58670
V\u1106\u116e\ud7ec
p1140
sI58671
V\u1106\u116e\ud7f1
p1141
sI58672
V\u1106\u116e\u11eb
p1142
sI58673
V\u1106\u116e\u11ec
p1143
sI58674
V\u1106\u116e\u11ed
p1144
sI58675
V\u1106\u116e\u11f0
p1145
sI58676
V\u1106\u116e\u11f9
p1146
sI58677
V\u1106\u116f\u11f9
p1147
sI58678
V\u1106\ud7b5
p1148
sI58679
V\u1106\u118c
p1149
sI58680
V\u1106\u118d
p1150
sI58681
V\u1106\u1171\u11f9
p1151
sI58682
V\u1106\u1172\u11e2
p1152
sI58683
V\u1106\u1194
p1153
sI58684
V\u1106\u1173\u11c4
p1154
sI58685
V\u1106\u1173\u11d0
p1155
sI58686
V\u1106\u1173\u11d9
p1156
sI58687
V\u1106\u1173\u11e2
p1157
sI58688
V\u1106\u1173\u11e7
p1158
sI58689
V\u1106\u1173\ud7f2
p1159
sI58690
V\u1106\u1173\u11eb
p1160
sI58691
V\u1106\u1173\u11f0
p1161
sI58692
V\u1106\u1195
p1162
sI58693
V\u1106\u1196
p1163
sI58694
V\u1106\u1196\u11b7
p1164
sI58695
V\u1106\u1174\u11d9
p1165
sI58696
V\u1106\u1174\u11e6
p1166
sI58697
V\u1106\u1174\u11f9
p1167
sI58698
V\u1106\u1175\ud7cf
p1168
sI58699
V\u1106\u1175\ud7d3
p1169
sI58700
V\u1106\u1175\ud7d4
p1170
sI58701
V\u1106\u1175\u11cd
p1171
sI58702
V\u1106\u1175\u11d0
p1172
sI58703
V\u1106\u1175\u11d9
p1173
sI58704
V\u1106\u1175\u11e6
p1174
sI58705
V\u1106\u1175\u11e7
p1175
sI58706
V\u1106\u1175\ud7f0
p1176
sI58707
V\u1106\u1175\ud7f1
p1177
sI58708
V\u1106\u1175\ud7f2
p1178
sI58709
V\u1106\u1175\u11eb
p1179
sI58710
V\u1106\u1175\u11f0
p1180
sI58711
V\u1106\u1175\u11f6
p1181
sI58712
V\u1106\u1175\u11f9
p1182
sI58713
V\u1106\u1198
p1183
sI58714
V\u1106\u1199
p1184
sI58715
V\u1106\u1199\u11ab
p1185
sI58716
V\u1106\ud7bf
p1186
sI58717
V\u1106\ud7c0
p1187
sI58718
V\u1106\u119c
p1188
sI58719
V\u1106\u119c\u11bc
p1189
sI58720
V\u1106\u119e
p1190
sI58721
V\u1106\u119e\u11a8
p1191
sI58722
V\u1106\u119e\u11c3
p1192
sI58723
V\u1106\u119e\u11ab
p1193
sI58724
V\u1106\u119e\u11ae
p1194
sI58725
V\u1106\u119e\ud7d3
p1195
sI58726
V\u1106\u119e\u11af
p1196
sI58727
V\u1106\u119e\u11b0
p1197
sI58728
V\u1106\u119e\u11d0
p1198
sI58729
V\u1106\u119e\u11b2
p1199
sI58730
V\u1106\u119e\u11d5
p1200
sI58731
V\u1106\u119e\u11b3
p1201
sI58732
V\u1106\u119e\u11b6
p1202
sI58733
V\u1106\u119e\u11d9
p1203
sI58734
V\u1106\u119e\u11b7
p1204
sI58735
V\u1106\u119e\u11b8
p1205
sI58736
V\u1106\u119e\u11ba
p1206
sI58737
V\u1106\u119e\ud7f0
p1207
sI58738
V\u1106\u119e\u11eb
p1208
sI58739
V\u1106\u119e\u11bc
p1209
sI58740
V\u1106\u119e\u11f0
p1210
sI58741
V\u1106\u119e\u11bd
p1211
sI58742
V\u1106\u119e\u11be
p1212
sI58743
V\u1106\u119e\u11c0
p1213
sI58744
V\u1106\u119f
p1214
sI58745
V\u1106\u119f\u11ab
p1215
sI58746
V\u1106\u119f\u11bc
p1216
sI58747
V\u1106\u11a1
p1217
sI58748
V\u1106\u11a1\u11a8
p1218
sI58749
V\u1106\u11a1\u11a9
p1219
sI58750
V\u1106\u11a1\u11ab
p1220
sI58751
V\u1106\u11a1\u11ae
p1221
sI58752
V\u1106\u11a1\u11af
p1222
sI58753
V\u1106\u11a1\u11b3
p1223
sI58754
V\u1106\u11a1\u11d9
p1224
sI58755
V\u1106\u11a1\u11b7
p1225
sI58756
V\u1106\u11a1\u11b8
p1226
sI58757
V\u1106\u11a1\u11e6
p1227
sI58758
V\u1106\u11a1\u11ba
p1228
sI58759
V\u1106\u11a1\u11bc
p1229
sI58760
V\u1106\u11a1\u11f0
p1230
sI58761
V\u1106\u11a1\u11bd
p1231
sI58762
V\u1106\u11a1\u11be
p1232
sI58763
V\u1106\u11a1\u11c2
p1233
sI58764
V\ua96f\u1163
p1234
sI58765
V\ua96f\u1178
p1235
sI58766
V\ua96f\u1167
p1236
sI58767
V\ua96f\u1168
p1237
sI58768
V\ua970\u1167
p1238
sI58769
V\ua970\u1167\u11af
p1239
sI58770
V\ua970\u1169
p1240
sI58771
V\u111c\u1161
p1241
sI58772
V\u111c\u1161\u11ab
p1242
sI58773
V\u111c\u1161\u11ae
p1243
sI58774
V\u111c\u1162
p1244
sI58775
V\u111c\u1163
p1245
sI58776
V\u111c\u1165
p1246
sI58777
V\u111c\u1166
p1247
sI58778
V\u111c\u1167
p1248
sI58779
V\u111c\u1168
p1249
sI58780
V\u111c\u1168\u11ab
p1250
sI58781
V\u111c\u1168\u11ae
p1251
sI58782
V\u111c\u1169
p1252
sI58783
V\u111c\u1169\u11a8
p1253
sI58784
V\u111c\u1169\u11ab
p1254
sI58785
V\u111c\u1169\u11ae
p1255
sI58786
V\u111c\u116a
p1256
sI58787
V\u111c\u116b
p1257
sI58788
V\u111c\u116c
p1258
sI58789
V\u111c\u116d
p1259
sI58790
V\u111c\u116e
p1260
sI58791
V\u111c\u116e\u11ab
p1261
sI58792
V\u111c\u116e\u11bc
p1262
sI58793
V\u111c\u116f
p1263
sI58794
V\u111c\u1170
p1264
sI58795
V\u111c\ud7b5
p1265
sI58796
V\u111c\u118c
p1266
sI58797
V\u111c\u1171
p1267
sI58798
V\u111c\u1172
p1268
sI58799
V\u111c\u1194
p1269
sI58800
V\u111c\u1173
p1270
sI58801
V\u111c\u1174
p1271
sI58802
V\u111c\u1175
p1272
sI58803
V\u111c\u1175\u11ab
p1273
sI58804
V\u111c\u1198
p1274
sI58805
V\u111c\u119e
p1275
sI58806
V\u111c\u11a1
p1276
sI58807
V\ua971\u1169
p1277
sI58808
V\ua971\u1169\u11a8
p1278
sI58809
V\u111d\u1161
p1279
sI58810
V\u111d\u1161\u11ab
p1280
sI58811
V\u111d\u1161\u11bc
p1281
sI58812
V\u111d\u1161\u11f0
p1282
sI58813
V\u111d\u1169
p1283
sI58814
V\u111d\u116a
p1284
sI58815
V\u111d\u116a\u11ab
p1285
sI58816
V\u111d\u116a\u11f9
p1286
sI58817
V\u111d\u116e
p1287
sI58818
V\u111d\u116e\u11ab
p1288
sI58819
V\u111d\u116e\u11bc
p1289
sI58820
V\u111d\u116e\u11f9
p1290
sI58821
V\u111d\u1171
p1291
sI58822
V\u111d\u1172
p1292
sI58823
V\u111d\u1172\u11ab
p1293
sI58824
V\u111d\u1173
p1294
sI58825
V\u111d\u1173\u11ab
p1295
sI58826
V\u111d\u1173\u11f9
p1296
sI58827
V\u111d\ud7b9\u11ab
p1297
sI58828
V\u111d\u1175
p1298
sI58829
V\u111d\u1175\u11bc
p1299
sI58830
V\u1107\u1161\u11c3
p1300
sI58831
V\u1107\u1161\u11fc
p1301
sI58832
V\u1107\u1161\ud7cb
p1302
sI58833
V\u1107\u1161\u11c7
p1303
sI58834
V\u1107\u1161\u11c9
p1304
sI58835
V\u1107\u1161\u11ca
p1305
sI58836
V\u1107\u1161\ud7d0
p1306
sI58837
V\u1107\u1161\ud7d1
p1307
sI58838
V\u1107\u1161\ud7d4
p1308
sI58839
V\u1107\u1161\u11d0
p1309
sI58840
V\u1107\u1161\u11d9
p1310
sI58841
V\u1107\u1161\ud7e0
p1311
sI58842
V\u1107\u1161\u11dc
p1312
sI58843
V\u1107\u1161\u11dd
p1313
sI58844
V\u1107\u1161\u11e2
p1314
sI58845
V\u1107\u1161\u11e3
p1315
sI58846
V\u1107\u1161\u11e6
p1316
sI58847
V\u1107\u1161\u11e7
p1317
sI58848
V\u1107\u1161\u11e8
p1318
sI58849
V\u1107\u1161\u11ea
p1319
sI58850
V\u1107\u1161\ud7f0
p1320
sI58851
V\u1107\u1161\u11eb
p1321
sI58852
V\u1107\u1161\u11f1
p1322
sI58853
V\u1107\u1161\u11f0
p1323
sI58854
V\u1107\u1161\u11f1
p1324
sI58855
V\u1107\u1161\u11f6
p1325
sI58856
V\u1107\u1161\u11f9
p1326
sI58857
V\u1107\u1176
p1327
sI58858
V\u1107\u1176\u11af
p1328
sI58859
V\u1107\u1177
p1329
sI58860
V\u1107\u1177\u11af
p1330
sI58861
V\u1107\u1162\u11f0
p1331
sI58862
V\u1107\u1163\u11e2
p1332
sI58863
V\u1107\u1178
p1333
sI58864
V\u1107\u1165\u11c7
p1334
sI58865
V\u1107\u1165\u11cd
p1335
sI58866
V\u1107\u1165\u11d9
p1336
sI58867
V\u1107\u1165\u11eb
p1337
sI58868
V\u1107\u1165\u11f0
p1338
sI58869
V\u1107\u117b
p1339
sI58870
V\u1107\u117b\u11af
p1340
sI58871
V\u1107\u117c
p1341
sI58872
V\u1107\u117c\u11a8
p1342
sI58873
V\u1107\u117c\u11af
p1343
sI58874
V\u1107\u117c\u11b7
p1344
sI58875
V\u1107\u117c\u11bc
p1345
sI58876
V\u1107\u1167\u11d9
p1346
sI58877
V\u1107\u1167\u11e2
p1347
sI58878
V\u1107\u1167\ud7f1
p1348
sI58879
V\u1107\u1167\u11f0
p1349
sI58880
V\u1107\u1167\u11f1
p1350
sI58881
V\u1107\u1167\u11f9
p1351
sI58882
V\u1107\u1169\u11d0
p1352
sI58883
V\u1107\u1169\u11d9
p1353
sI58884
V\u1107\u1169\ud7e0
p1354
sI58885
V\u1107\u1169\u11dc
p1355
sI58886
V\u1107\u1169\u11dd
p1356
sI58887
V\u1107\u1169\u11e2
p1357
sI58888
V\u1107\u1169\u11e7
p1358
sI58889
V\u1107\u1169\ud7ec
p1359
sI58890
V\u1107\u1169\u11eb
p1360
sI58891
V\u1107\u1169\u11f0
p1361
sI58892
V\u1107\u1182
p1362
sI58893
V\u1107\ud7b1
p1363
sI58894
V\u1107\u116c\u11d9
p1364
sI58895
V\u1107\u116c\ud7f0
p1365
sI58896
V\u1107\u116d\u11d9
p1366
sI58897
V\u1107\u116d\u11e2
p1367
sI58898
V\u1107\u116d\u11f0
p1368
sI58899
V\u1107\u1187
p1369
sI58900
V\u1107\u1188
p1370
sI58901
V\u1107\u116e\u11c7
p1371
sI58902
V\u1107\u116e\u11d0
p1372
sI58903
V\u1107\u116e\u11d1
p1373
sI58904
V\u1107\u116e\u11d2
p1374
sI58905
V\u1107\u116e\u11d9
p1375
sI58906
V\u1107\u116e\u11e2
p1376
sI58907
V\u1107\u116e\u11e6
p1377
sI58908
V\u1107\u116e\u11e7
p1378
sI58909
V\u1107\u116e\ud7f0
p1379
sI58910
V\u1107\u116e\u11eb
p1380
sI58911
V\u1107\u116e\u11ef
p1381
sI58912
V\u1107\u116e\u11f0
p1382
sI58913
V\u1107\u116e\u11f9
p1383
sI58914
V\u1107\u116f\u11f9
p1384
sI58915
V\u1107\ud7b5
p1385
sI58916
V\u1107\u118c
p1386
sI58917
V\u1107\u118d
p1387
sI58918
V\u1107\u1171\u11d9
p1388
sI58919
V\u1107\u1171\u11f9
p1389
sI58920
V\u1107\u1172\u11d9
p1390
sI58921
V\u1107\u1172\u11e2
p1391
sI58922
V\u1107\u1194
p1392
sI58923
V\u1107\u1173\u11c3
p1393
sI58924
V\u1107\u1173\ud7d4
p1394
sI58925
V\u1107\u1173\u11d0
p1395
sI58926
V\u1107\u1173\u11d9
p1396
sI58927
V\u1107\u1173\u11dd
p1397
sI58928
V\u1107\u1173\u11e7
p1398
sI58929
V\u1107\u1173\ud7f1
p1399
sI58930
V\u1107\u1173\u11eb
p1400
sI58931
V\u1107\u1173\u11f0
p1401
sI58932
V\u1107\u1173\u11f9
p1402
sI58933
V\u1107\u1196
p1403
sI58934
V\u1107\u1174\u11f9
p1404
sI58935
V\u1107\u1175\u11ca
p1405
sI58936
V\u1107\u1175\ud7d0
p1406
sI58937
V\u1107\u1175\u11d9
p1407
sI58938
V\u1107\u1175\u11e2
p1408
sI58939
V\u1107\u1175\u11e7
p1409
sI58940
V\u1107\u1175\ud7ee
p1410
sI58941
V\u1107\u1175\ud7f0
p1411
sI58942
V\u1107\u1175\ud7f2
p1412
sI58943
V\u1107\u1175\u11eb
p1413
sI58944
V\u1107\u1175\u11f0
p1414
sI58945
V\u1107\u1175\u11f1
p1415
sI58946
V\u1107\u1175\u11f9
p1416
sI58947
V\u1107\u1198
p1417
sI58948
V\u1107\u1199
p1418
sI58949
V\u1107\u1199\u11ab
p1419
sI58950
V\u1107\ud7bf
p1420
sI58951
V\u1107\ud7c0
p1421
sI58952
V\u1107\u119a
p1422
sI58953
V\u1107\u119b
p1423
sI58954
V\u1107\u119e
p1424
sI58955
V\u1107\u119e\u11a8
p1425
sI58956
V\u1107\u119e\u11c3
p1426
sI58957
V\u1107\u119e\u11ab
p1427
sI58958
V\u1107\u119e\u11ae
p1428
sI58959
V\u1107\u119e\u11af
p1429
sI58960
V\u1107\u119e\u11b0
p1430
sI58961
V\u1107\u119e\u11d0
p1431
sI58962
V\u1107\u119e\u11b1
p1432
sI58963
V\u1107\u119e\u11b2
p1433
sI58964
V\u1107\u119e\u11d5
p1434
sI58965
V\u1107\u119e\u11b3
p1435
sI58966
V\u1107\u119e\u11b4
p1436
sI58967
V\u1107\u119e\u11b6
p1437
sI58968
V\u1107\u119e\u11d9
p1438
sI58969
V\u1107\u119e\u11b7
p1439
sI58970
V\u1107\u119e\u11b8
p1440
sI58971
V\u1107\u119e\u11e3
p1441
sI58972
V\u1107\u119e\u11ba
p1442
sI58973
V\u1107\u119e\ud7f1
p1443
sI58974
V\u1107\u119e\u11eb
p1444
sI58975
V\u1107\u119e\u11f0
p1445
sI58976
V\u1107\u119e\u11bd
p1446
sI58977
V\u1107\u119e\u11be
p1447
sI58978
V\u1107\u119e\u11c0
p1448
sI58979
V\u1107\u119f
p1449
sI58980
V\u1107\u119f\u11ab
p1450
sI58981
V\u1107\u119f\u11af
p1451
sI58982
V\u1107\u119f\u11bc
p1452
sI58983
V\u1107\ud7c6
p1453
sI58984
V\u1107\u11a1
p1454
sI58985
V\u1107\u11a1\u11a8
p1455
sI58986
V\u1107\u11a1\u11ab
p1456
sI58987
V\u1107\u11a1\u11ae
p1457
sI58988
V\u1107\u11a1\u11af
p1458
sI58989
V\u1107\u11a1\u11b0
p1459
sI58990
V\u1107\u11a1\u11d9
p1460
sI58991
V\u1107\u11a1\u11b7
p1461
sI58992
V\u1107\u11a1\u11b8
p1462
sI58993
V\u1107\u11a1\u11ba
p1463
sI58994
V\u1107\u11a1\u11bc
p1464
sI58995
V\u1107\u11a1\u11f0
p1465
sI58996
V\u1107\u11a1\u11f1
p1466
sI58997
V\u1107\u11a1\u11bd
p1467
sI58998
V\u1107\u11a1\u11be
p1468
sI58999
V\u1107\u11a1\u11c0
p1469
sI59000
V\u1107\u11a1\u11c2
p1470
sI59001
V\u111e\u1161
p1471
sI59002
V\u111e\u1161\u11a8
p1472
sI59003
V\u111e\u1161\u11b7
p1473
sI59004
V\u111e\u1162
p1474
sI59005
V\u111e\u1162\u11ab
p1475
sI59006
V\u111e\u1165
p1476
sI59007
V\u111e\u1165\u11ba
p1477
sI59008
V\u111e\u1166
p1478
sI59009
V\u111e\u1166\u11af
p1479
sI59010
V\u111e\u1167
p1480
sI59011
V\u111e\u1167\u11ab
p1481
sI59012
V\u111e\u1167\u11ba
p1482
sI59013
V\u111e\u1168
p1483
sI59014
V\u111e\u1168\u11af
p1484
sI59015
V\u111e\u1169
p1485
sI59016
V\u111e\u1169\u11ba
p1486
sI59017
V\u111e\u116c
p1487
sI59018
V\u111e\u116c\u11ba
p1488
sI59019
V\u111e\u116e
p1489
sI59020
V\u111e\u116e\u11af
p1490
sI59021
V\u111e\u116e\u11b7
p1491
sI59022
V\u111e\u116e\u11ba
p1492
sI59023
V\u111e\u116f
p1493
sI59024
V\u111e\u1170
p1494
sI59025
V\u111e\u1171
p1495
sI59026
V\u111e\u1173
p1496
sI59027
V\u111e\u1173\u11ab
p1497
sI59028
V\u111e\u1173\u11ae
p1498
sI59029
V\u111e\u1173\u11af
p1499
sI59030
V\u111e\u1173\u11ba
p1500
sI59031
V\u111e\u1174
p1501
sI59032
V\u111e\u1174\u11ba
p1502
sI59033
V\u111e\u1175
p1503
sI59034
V\u111e\u1175\u11af
p1504
sI59035
V\u111e\u1175\u11b7
p1505
sI59036
V\u111e\u1175\u11ba
p1506
sI59037
V\u111e\u119e
p1507
sI59038
V\u111e\u119e\u11af
p1508
sI59039
V\u111e\u11a1
p1509
sI59040
V\u111e\u11a1\u11ab
p1510
sI59041
V\u111e\u11a1\u11ba
p1511
sI59042
V\u111f\u1167
p1512
sI59043
V\u1120\u1161
p1513
sI59044
V\u1120\u1161\u11a8
p1514
sI59045
V\u1120\u1161\u11ab
p1515
sI59046
V\u1120\u1161\u11af
p1516
sI59047
V\u1120\u1161\u11b7
p1517
sI59048
V\u1120\u1161\u11b8
p1518
sI59049
V\u1120\u1161\u11ba
p1519
sI59050
V\u1120\u1162
p1520
sI59051
V\u1120\u1163
p1521
sI59052
V\u1120\u1165
p1522
sI59053
V\u1120\u1165\u11a8
p1523
sI59054
V\u1120\u1165\u11ab
p1524
sI59055
V\u1120\u1165\u11ae
p1525
sI59056
V\u1120\u1165\u11af
p1526
sI59057
V\u1120\u1165\u11b2
p1527
sI59058
V\u1120\u1165\u11d5
p1528
sI59059
V\u1120\u1165\u11b7
p1529
sI59060
V\u1120\u1165\u11ba
p1530
sI59061
V\u1120\u1166
p1531
sI59062
V\u1120\u1166\u11ab
p1532
sI59063
V\u1120\u1166\u11ba
p1533
sI59064
V\u1120\u1167
p1534
sI59065
V\u1120\u1167\u11ba
p1535
sI59066
V\u1120\u1168
p1536
sI59067
V\u1120\u1168\u11ba
p1537
sI59068
V\u1120\u1169
p1538
sI59069
V\u1120\u1169\u11a8
p1539
sI59070
V\u1120\u1169\u11af
p1540
sI59071
V\u1120\u1169\u11b7
p1541
sI59072
V\u1120\u1169\u11bc
p1542
sI59073
V\u1120\u116a
p1543
sI59074
V\u1120\u116b
p1544
sI59075
V\u1120\u116c
p1545
sI59076
V\u1120\u116c\u11ba
p1546
sI59077
V\u1120\u116d
p1547
sI59078
V\u1120\u116e
p1548
sI59079
V\u1120\u116e\u11a8
p1549
sI59080
V\u1120\u116e\u11af
p1550
sI59081
V\u1120\u116e\u11b2
p1551
sI59082
V\u1120\u116e\u11b7
p1552
sI59083
V\u1120\u116e\u11ba
p1553
sI59084
V\u1120\u116e\u11bc
p1554
sI59085
V\u1120\u116e\u11f0
p1555
sI59086
V\u1120\u116f
p1556
sI59087
V\u1120\u1170
p1557
sI59088
V\u1120\ud7b5
p1558
sI59089
V\u1120\u118c
p1559
sI59090
V\u1120\u1171
p1560
sI59091
V\u1120\u1171\u11af
p1561
sI59092
V\u1120\u1171\u11ba
p1562
sI59093
V\u1120\u1172
p1563
sI59094
V\u1120\u1194
p1564
sI59095
V\u1120\u1173
p1565
sI59096
V\u1120\u1173\u11a8
p1566
sI59097
V\u1120\u1173\u11ab
p1567
sI59098
V\u1120\u1173\u11ae
p1568
sI59099
V\u1120\u1173\u11af
p1569
sI59100
V\u1120\u1173\u11b0
p1570
sI59101
V\u1120\u1173\u11b2
p1571
sI59102
V\u1120\u1173\u11b3
p1572
sI59103
V\u1120\u1173\u11b6
p1573
sI59104
V\u1120\u1173\u11b7
p1574
sI59105
V\u1120\u1173\u11ba
p1575
sI59106
V\u1120\u1173\u11bc
p1576
sI59107
V\u1120\u1173\u11bd
p1577
sI59108
V\u1120\u1174
p1578
sI59109
V\u1120\u1174\u11af
p1579
sI59110
V\u1120\u1174\u11ba
p1580
sI59111
V\u1120\u1175
p1581
sI59112
V\u1120\u1175\u11a8
p1582
sI59113
V\u1120\u1175\u11ab
p1583
sI59114
V\u1120\u1175\u11af
p1584
sI59115
V\u1120\u1175\u11d0
p1585
sI59116
V\u1120\u1175\u11b7
p1586
sI59117
V\u1120\u1175\u11ba
p1587
sI59118
V\u1120\u1198
p1588
sI59119
V\u1120\u119e
p1589
sI59120
V\u1120\u119e\u11ab
p1590
sI59121
V\u1120\u119e\u11ae
p1591
sI59122
V\u1120\u119e\u11af
p1592
sI59123
V\u1120\u119e\u11b7
p1593
sI59124
V\u1120\u119e\u11ba
p1594
sI59125
V\u1120\u11a1
p1595
sI59126
V\u1120\u11a1\u11ab
p1596
sI59127
V\u1120\u11a1\u11ba
p1597
sI59128
V\u1108\u1161\u11d0
p1598
sI59129
V\u1108\u1161\u11d9
p1599
sI59130
V\u1108\u1161\u11e2
p1600
sI59131
V\u1108\u1161\u11e6
p1601
sI59132
V\u1108\u1161\u11f0
p1602
sI59133
V\u1108\u1161\u11f9
p1603
sI59134
V\u1108\u1163\u11e2
p1604
sI59135
V\u1108\u1163\u11f0
p1605
sI59136
V\u1108\u1165\u11d9
p1606
sI59137
V\u1108\u1165\u11f9
p1607
sI59138
V\u1108\u1167\u11d9
p1608
sI59139
V\u1108\u1167\u11e2
p1609
sI59140
V\u1108\u1167\u11f0
p1610
sI59141
V\u1108\u1167\u11f9
p1611
sI59142
V\u1108\u1169\u11d9
p1612
sI59143
V\u1108\u1169\u11e2
p1613
sI59144
V\u1108\u1169\u11f0
p1614
sI59145
V\u1108\u116d\u11e2
p1615
sI59146
V\u1108\u116e\u11d9
p1616
sI59147
V\u1108\u116e\u11e2
p1617
sI59148
V\u1108\u116e\u11f0
p1618
sI59149
V\u1108\u116e\u11f9
p1619
sI59150
V\u1108\u116f\u11f9
p1620
sI59151
V\u1108\ud7b5
p1621
sI59152
V\u1108\ud7b5\u11f9
p1622
sI59153
V\u1108\u1172\u11e2
p1623
sI59154
V\u1108\u1173\u11d9
p1624
sI59155
V\u1108\u1173\u11e2
p1625
sI59156
V\u1108\u1173\ud7e6
p1626
sI59157
V\u1108\u1173\u11f0
p1627
sI59158
V\u1108\u1173\u11f9
p1628
sI59159
V\u1108\u1174\u11f0
p1629
sI59160
V\u1108\u1174\u11f9
p1630
sI59161
V\u1108\u1175\u11d9
p1631
sI59162
V\u1108\u1175\u11e2
p1632
sI59163
V\u1108\u1175\u11f0
p1633
sI59164
V\u1108\u1175\u11f9
p1634
sI59165
V\u1108\u119e
p1635
sI59166
V\u1108\u119e\u11af
p1636
sI59167
V\u1108\u119e\u11b3
p1637
sI59168
V\u1108\u119e\u11d9
p1638
sI59169
V\u1108\u11a1
p1639
sI59170
V\u1108\u11a1\u11a8
p1640
sI59171
V\u1108\u11a1\u11bc
p1641
sI59172
V\u1108\u11a1\u11f0
p1642
sI59173
V\u1121\u1161
p1643
sI59174
V\u1121\u1161\u11a8
p1644
sI59175
V\u1121\u1161\u11ab
p1645
sI59176
V\u1121\u1161\u11ae
p1646
sI59177
V\u1121\u1161\u11af
p1647
sI59178
V\u1121\u1161\u11b2
p1648
sI59179
V\u1121\u1161\u11b7
p1649
sI59180
V\u1121\u1161\u11b8
p1650
sI59181
V\u1121\u1161\u11ba
p1651
sI59182
V\u1121\u1161\ud7f1
p1652
sI59183
V\u1121\u1161\ud7f2
p1653
sI59184
V\u1121\u1161\u11bc
p1654
sI59185
V\u1121\u1161\u11f0
p1655
sI59186
V\u1121\u1161\u11c2
p1656
sI59187
V\u1121\u1162
p1657
sI59188
V\u1121\u1162\u11b8
p1658
sI59189
V\u1121\u1163
p1659
sI59190
V\u1121\u1163\u11bc
p1660
sI59191
V\u1121\u1163\u11f0
p1661
sI59192
V\u1121\u1163\u11c1
p1662
sI59193
V\u1121\u1163\u11c2
p1663
sI59194
V\u1121\u1164
p1664
sI59195
V\u1121\u1165
p1665
sI59196
V\u1121\u1165\u11a8
p1666
sI59197
V\u1121\u1165\u11ab
p1667
sI59198
V\u1121\u1165\u11af
p1668
sI59199
V\u1121\u1165\u11b7
p1669
sI59200
V\u1121\u1165\u11ba
p1670
sI59201
V\u1121\u1166
p1671
sI59202
V\u1121\u1166\u11ab
p1672
sI59203
V\u1121\u1166\u11af
p1673
sI59204
V\u1121\u1167
p1674
sI59205
V\u1121\u1167\u11a8
p1675
sI59206
V\u1121\u1167\u11ab
p1676
sI59207
V\u1121\u1167\u11af
p1677
sI59208
V\u1121\u1167\u11b7
p1678
sI59209
V\u1121\u1167\u11ba
p1679
sI59210
V\u1121\u1168
p1680
sI59211
V\u1121\u1168\u11ab
p1681
sI59212
V\u1121\u1169
p1682
sI59213
V\u1121\u1169\u11a8
p1683
sI59214
V\u1121\u1169\u11ab
p1684
sI59215
V\u1121\u1169\u11ae
p1685
sI59216
V\u1121\u1169\u11af
p1686
sI59217
V\u1121\u1169\u11b7
p1687
sI59218
V\u1121\u1169\u11ba
p1688
sI59219
V\u1121\u1169\u11bc
p1689
sI59220
V\u1121\u1169\u11f0
p1690
sI59221
V\u1121\u116a
p1691
sI59222
V\u1121\u116a\u11bc
p1692
sI59223
V\u1121\u116a\u11f0
p1693
sI59224
V\u1121\u116a\u11f9
p1694
sI59225
V\u1121\u116b
p1695
sI59226
V\u1121\u116b\u11ba
p1696
sI59227
V\u1121\u116c
p1697
sI59228
V\u1121\u116d
p1698
sI59229
V\u1121\u116e
p1699
sI59230
V\u1121\u116e\u11a8
p1700
sI59231
V\u1121\u116e\u11ab
p1701
sI59232
V\u1121\u116e\u11af
p1702
sI59233
V\u1121\u116e\u11d9
p1703
sI59234
V\u1121\u116e\u11b7
p1704
sI59235
V\u1121\u116e\u11ba
p1705
sI59236
V\u1121\u116e\u11bd
p1706
sI59237
V\u1121\u116e\u11be
p1707
sI59238
V\u1121\u116f
p1708
sI59239
V\u1121\u1170
p1709
sI59240
V\u1121\ud7b5
p1710
sI59241
V\u1121\u118c
p1711
sI59242
V\u1121\u1171
p1712
sI59243
V\u1121\u1172
p1713
sI59244
V\u1121\u1172\u11b8
p1714
sI59245
V\u1121\u1172\u11ba
p1715
sI59246
V\u1121\u1172\u11bd
p1716
sI59247
V\u1121\u1194
p1717
sI59248
V\u1121\u1173
p1718
sI59249
V\u1121\u1173\u11a8
p1719
sI59250
V\u1121\u1173\u11ab
p1720
sI59251
V\u1121\u1173\u11ae
p1721
sI59252
V\u1121\u1173\u11af
p1722
sI59253
V\u1121\u1173\u11b6
p1723
sI59254
V\u1121\u1173\u11d9
p1724
sI59255
V\u1121\u1173\u11b7
p1725
sI59256
V\u1121\u1173\u11ba
p1726
sI59257
V\u1121\u1173\u11be
p1727
sI59258
V\u1121\u1174
p1728
sI59259
V\u1121\u1174\u11a8
p1729
sI59260
V\u1121\u1175
p1730
sI59261
V\u1121\u1175\u11a8
p1731
sI59262
V\u1121\u1175\u11ab
p1732
sI59263
V\u1121\u1175\u11af
p1733
sI59264
V\u1121\u1175\u11b7
p1734
sI59265
V\u1121\u1175\u11b8
p1735
sI59266
V\u1121\u1175\u11ba
p1736
sI59267
V\u1121\u1175\u11bc
p1737
sI59268
V\u1121\u1175\u11f0
p1738
sI59269
V\u1121\u1198
p1739
sI59270
V\u1121\u119e
p1740
sI59271
V\u1121\u119e\u11ab
p1741
sI59272
V\u1121\u119e\u11ae
p1742
sI59273
V\u1121\u119e\u11af
p1743
sI59274
V\u1121\u119e\u11b3
p1744
sI59275
V\u1121\u119e\u11d9
p1745
sI59276
V\u1121\u119e\u11b7
p1746
sI59277
V\u1121\u119e\u11b8
p1747
sI59278
V\u1121\u119e\u11ba
p1748
sI59279
V\u1121\u119e\ud7f2
p1749
sI59280
V\u1121\u119e\u11f0
p1750
sI59281
V\u1121\u119e\u11c2
p1751
sI59282
V\u1121\u11a1
p1752
sI59283
V\u1121\u11a1\u11ba
p1753
sI59284
V\u1122\u1161
p1754
sI59285
V\u1122\u1162
p1755
sI59286
V\u1122\u1162\u11ab
p1756
sI59287
V\u1122\u1162\u11ba
p1757
sI59288
V\u1122\u1165
p1758
sI59289
V\u1122\u1165\u11b8
p1759
sI59290
V\u1122\u1165\u11e6
p1760
sI59291
V\u1122\u1165\u11ba
p1761
sI59292
V\u1122\u1166
p1762
sI59293
V\u1122\u1166\u11af
p1763
sI59294
V\u1122\u1167
p1764
sI59295
V\u1122\u1167\u11a8
p1765
sI59296
V\u1122\u1167\u11ba
p1766
sI59297
V\u1122\u1168
p1767
sI59298
V\u1122\u1168\u11ba
p1768
sI59299
V\u1122\u1169
p1769
sI59300
V\u1122\u116c
p1770
sI59301
V\u1122\u116c\u11ba
p1771
sI59302
V\u1122\u116e
p1772
sI59303
V\u1122\u116e\u11ab
p1773
sI59304
V\u1122\u116e\u11af
p1774
sI59305
V\u1122\u116e\u11b7
p1775
sI59306
V\u1122\u116e\u11ba
p1776
sI59307
V\u1122\u116f
p1777
sI59308
V\u1122\u1170
p1778
sI59309
V\u1122\u1171
p1779
sI59310
V\u1122\u1171\u11ab
p1780
sI59311
V\u1122\u1173
p1781
sI59312
V\u1122\u1173\u11ab
p1782
sI59313
V\u1122\u1173\u11af
p1783
sI59314
V\u1122\u1173\u11b7
p1784
sI59315
V\u1122\u1173\u11ba
p1785
sI59316
V\u1122\u1174
p1786
sI59317
V\u1122\u1174\u11ab
p1787
sI59318
V\u1122\u1174\u11af
p1788
sI59319
V\u1122\u1174\u11b7
p1789
sI59320
V\u1122\u1174\u11ba
p1790
sI59321
V\u1122\u1175
p1791
sI59322
V\u1122\u1175\u11af
p1792
sI59323
V\u1122\u1175\u11b7
p1793
sI59324
V\u1122\u119e
p1794
sI59325
V\u1122\u119e\u11ab
p1795
sI59326
V\u1123\u1161
p1796
sI59327
V\u1123\u1161\u11b8
p1797
sI59328
V\u1123\u1162
p1798
sI59329
V\u1123\u1165
p1799
sI59330
V\u1123\u1165\u11af
p1800
sI59331
V\u1123\u1165\u11b2
p1801
sI59332
V\u1123\u1165\u11ba
p1802
sI59333
V\u1123\u1167
p1803
sI59334
V\u1123\u1167\u11ba
p1804
sI59335
V\u1123\u1169
p1805
sI59336
V\u1123\u116c
p1806
sI59337
V\u1123\u116e
p1807
sI59338
V\u1123\u116e\u11af
p1808
sI59339
V\u1123\u116e\u11b7
p1809
sI59340
V\u1123\u1172
p1810
sI59341
V\u1123\u1172\u11b7
p1811
sI59342
V\u1123\u1173
p1812
sI59343
V\u1123\u1173\u11ab
p1813
sI59344
V\u1123\u1173\u11ba
p1814
sI59345
V\u1123\u1174
p1815
sI59346
V\u1123\u1175
p1816
sI59347
V\u1123\u1175\u11af
p1817
sI59348
V\u1123\u119e
p1818
sI59349
V\u1123\u119e\u11af
p1819
sI59350
V\u1123\u11a1
p1820
sI59351
V\u1124\u1167
p1821
sI59352
V\u1124\u1168
p1822
sI59353
V\u1125\u1165
p1823
sI59354
V\u1125\u1169
p1824
sI59355
V\u1125\u1173
p1825
sI59356
V\u1126\u119e
p1826
sI59357
V\u1126\u119e\u11ab
p1827
sI59358
V\ua972\u1161
p1828
sI59359
V\u1127\u1161
p1829
sI59360
V\u1127\u1161\u11a8
p1830
sI59361
V\u1127\u1161\u11ab
p1831
sI59362
V\u1127\u1161\u11b7
p1832
sI59363
V\u1127\u1161\u11ba
p1833
sI59364
V\u1127\u1161\u11bc
p1834
sI59365
V\u1127\u1161\u11f0
p1835
sI59366
V\u1127\u1162
p1836
sI59367
V\u1127\u1163
p1837
sI59368
V\u1127\u1163\u11a8
p1838
sI59369
V\u1127\u1163\u11bc
p1839
sI59370
V\u1127\u1163\u11f0
p1840
sI59371
V\u1127\u1165
p1841
sI59372
V\u1127\u1165\u11a8
p1842
sI59373
V\u1127\u1166
p1843
sI59374
V\u1127\u1167
p1844
sI59375
V\u1127\u1169
p1845
sI59376
V\u1127\u1169\u11a8
p1846
sI59377
V\u1127\u1169\u11ab
p1847
sI59378
V\u1127\u1169\u11b7
p1848
sI59379
V\u1127\u1169\u11ba
p1849
sI59380
V\u1127\u1169\u11bc
p1850
sI59381
V\u1127\u1169\u11f0
p1851
sI59382
V\u1127\u1169\u11bd
p1852
sI59383
V\u1127\u1169\u11be
p1853
sI59384
V\u1127\u116a
p1854
sI59385
V\u1127\u116a\u11bc
p1855
sI59386
V\u1127\u116a\u11f0
p1856
sI59387
V\u1127\u116b
p1857
sI59388
V\u1127\u116c
p1858
sI59389
V\u1127\u116c\u11ab
p1859
sI59390
V\u1127\u116c\u11af
p1860
sI59391
V\u1127\u116d
p1861
sI59392
V\u1127\u116e
p1862
sI59393
V\u1127\u116e\u11a8
p1863
sI59394
V\u1127\u116e\u11af
p1864
sI59395
V\u1127\u116e\u11b7
p1865
sI59396
V\u1127\u1171
p1866
sI59397
V\u1127\u1173
p1867
sI59398
V\u1127\u1173\u11a8
p1868
sI59399
V\u1127\u1173\u11ab
p1869
sI59400
V\u1127\u1173\u11ae
p1870
sI59401
V\u1127\u1173\u11af
p1871
sI59402
V\u1127\u1173\u11b7
p1872
sI59403
V\u1127\u1173\u11ba
p1873
sI59404
V\u1127\u1173\u11bd
p1874
sI59405
V\u1127\u1174
p1875
sI59406
V\u1127\u1174\u11bc
p1876
sI59407
V\u1127\u1174\u11f0
p1877
sI59408
V\u1127\u1175
p1878
sI59409
V\u1127\u1175\u11a8
p1879
sI59410
V\u1127\u1175\u11ab
p1880
sI59411
V\u1127\u1175\u11ae
p1881
sI59412
V\u1127\u1175\u11af
p1882
sI59413
V\u1127\u1175\u11b7
p1883
sI59414
V\u1127\u1175\u11ba
p1884
sI59415
V\u1127\u1175\ud7f2
p1885
sI59416
V\u1127\u1175\u11bc
p1886
sI59417
V\u1127\u1175\u11f0
p1887
sI59418
V\u1127\u119e
p1888
sI59419
V\u1127\u119e\u11a8
p1889
sI59420
V\u1127\u119e\u11ab
p1890
sI59421
V\u1127\u119e\u11af
p1891
sI59422
V\u1127\u119e\u11b7
p1892
sI59423
V\u1127\u11a1
p1893
sI59424
V\u1127\u11a1\u11ab
p1894
sI59425
V\u1127\u11a1\u11af
p1895
sI59426
V\u1127\u11a1\u11bc
p1896
sI59427
V\u1128\u1169
p1897
sI59428
V\u1128\u1169\u11bc
p1898
sI59429
V\u1128\u119e
p1899
sI59430
V\u1128\u119e\u11af
p1900
sI59431
V\ua973\u1169
p1901
sI59432
V\ua973\u116a
p1902
sI59433
V\ua973\u116b
p1903
sI59434
V\ua973\u1173
p1904
sI59435
V\u1129\u1161
p1905
sI59436
V\u1129\u1165
p1906
sI59437
V\u1129\u1165\u11a8
p1907
sI59438
V\u1129\u1165\u11af
p1908
sI59439
V\u1129\u1165\u11b2
p1909
sI59440
V\u1129\u1165\u11d5
p1910
sI59441
V\u1129\u1165\u11b7
p1911
sI59442
V\u1129\u1165\u11ba
p1912
sI59443
V\u1129\u1167
p1913
sI59444
V\u1129\u1169
p1914
sI59445
V\u1129\u1169\u11b7
p1915
sI59446
V\u1129\u1169\u11b8
p1916
sI59447
V\u1129\u116e
p1917
sI59448
V\u1129\u116e\u11a8
p1918
sI59449
V\u1129\u116e\u11fb
p1919
sI59450
V\u1129\u1171
p1920
sI59451
V\u1129\u1171\u11af
p1921
sI59452
V\u1129\u1171\u11b7
p1922
sI59453
V\u1129\u1173
p1923
sI59454
V\u1129\u1173\u11ab
p1924
sI59455
V\u1129\u1173\u11ae
p1925
sI59456
V\u1129\u1173\u11ba
p1926
sI59457
V\u1129\u1174
p1927
sI59458
V\u1129\u1174\u11b7
p1928
sI59459
V\u1129\u1175
p1929
sI59460
V\u1129\u1175\u11ab
p1930
sI59461
V\u1129\u1175\u11af
p1931
sI59462
V\u1129\u1175\u11b7
p1932
sI59463
V\u1129\u119e
p1933
sI59464
V\u1129\u119e\u11ab
p1934
sI59465
V\u1129\u119e\u11af
p1935
sI59466
V\u1129\u11a1
p1936
sI59467
V\u112a\u1161
p1937
sI59468
V\u112a\u1161\u11ab
p1938
sI59469
V\u112a\u1169
p1939
sI59470
V\u112a\u1169\u11ab
p1940
sI59471
V\u112a\u116d
p1941
sI59472
V\u112a\u1173
p1942
sI59473
V\u112a\u1173\u11af
p1943
sI59474
V\u112a\u1175
p1944
sI59475
V\u112a\u119e
p1945
sI59476
V\u112a\u119e\u11af
p1946
sI59477
V\ua974\u1161
p1947
sI59478
V\ua974\u1161\u11ab
p1948
sI59479
V\u112b\u1161
p1949
sI59480
V\u112b\u1161\u11a8
p1950
sI59481
V\u112b\u1161\u11ab
p1951
sI59482
V\u112b\u1161\u11ae
p1952
sI59483
V\u112b\u1161\u11af
p1953
sI59484
V\u112b\u1161\u11b0
p1954
sI59485
V\u112b\u1161\u11d9
p1955
sI59486
V\u112b\u1161\u11b7
p1956
sI59487
V\u112b\u1161\u11ba
p1957
sI59488
V\u112b\u1161\u11eb
p1958
sI59489
V\u112b\u1161\u11bc
p1959
sI59490
V\u112b\u1161\u11f0
p1960
sI59491
V\u112b\u1161\u11c0
p1961
sI59492
V\u112b\u1161\u11f9
p1962
sI59493
V\u112b\u1162
p1963
sI59494
V\u112b\u1162\u11ab
p1964
sI59495
V\u112b\u1162\u11ba
p1965
sI59496
V\u112b\u1165
p1966
sI59497
V\u112b\u1165\u11ab
p1967
sI59498
V\u112b\u1165\u11b7
p1968
sI59499
V\u112b\u1165\u11b8
p1969
sI59500
V\u112b\u1165\u11bc
p1970
sI59501
V\u112b\u1166
p1971
sI59502
V\u112b\u1166\u11ba
p1972
sI59503
V\u112b\u1167
p1973
sI59504
V\u112b\u1167\u11a8
p1974
sI59505
V\u112b\u1167\u11af
p1975
sI59506
V\u112b\u1167\u11d9
p1976
sI59507
V\u112b\u1167\u11ba
p1977
sI59508
V\u112b\u1168
p1978
sI59509
V\u112b\u1168\u11ba
p1979
sI59510
V\u112b\u1169
p1980
sI59511
V\u112b\u1169\u11ab
p1981
sI59512
V\u112b\u1169\u11af
p1982
sI59513
V\u112b\u1169\u11b3
p1983
sI59514
V\u112b\u1169\u11d9
p1984
sI59515
V\u112b\u1169\u11b7
p1985
sI59516
V\u112b\u1169\u11dd
p1986
sI59517
V\u112b\u1169\u11b8
p1987
sI59518
V\u112b\u1169\u11ba
p1988
sI59519
V\u112b\u1169\u11bc
p1989
sI59520
V\u112b\u116a
p1990
sI59521
V\u112b\u116a\u11ab
p1991
sI59522
V\u112b\u116d
p1992
sI59523
V\u112b\u1187
p1993
sI59524
V\u112b\u1188
p1994
sI59525
V\u112b\u116e
p1995
sI59526
V\u112b\u116e\u11ab
p1996
sI59527
V\u112b\u116e\u11af
p1997
sI59528
V\u112b\u116e\u11b7
p1998
sI59529
V\u112b\u116e\u11b8
p1999
sI59530
V\u112b\u116e\u11ba
p2000
sI59531
V\u112b\u116e\u11bc
p2001
sI59532
V\u112b\u116e\u11f0
p2002
sI59533
V\u112b\u116e\u11c2
p2003
sI59534
V\u112b\u116e\u11f9
p2004
sI59535
V\u112b\u116f
p2005
sI59536
V\u112b\u1171
p2006
sI59537
V\u112b\u1171\u11af
p2007
sI59538
V\u112b\u1171\u11d9
p2008
sI59539
V\u112b\u1172
p2009
sI59540
V\u112b\u1172\u11f9
p2010
sI59541
V\u112b\u1173
p2011
sI59542
V\u112b\u1173\u11ab
p2012
sI59543
V\u112b\u1173\u11c7
p2013
sI59544
V\u112b\u1173\u11af
p2014
sI59545
V\u112b\u1173\u11b3
p2015
sI59546
V\u112b\u1173\u11d9
p2016
sI59547
V\u112b\u1173\u11b7
p2017
sI59548
V\u112b\u1173\u11e2
p2018
sI59549
V\u112b\u1173\u11ba
p2019
sI59550
V\u112b\u1173\u11bc
p2020
sI59551
V\u112b\u1195
p2021
sI59552
V\u112b\u1174
p2022
sI59553
V\u112b\u1175
p2023
sI59554
V\u112b\u1175\u11a8
p2024
sI59555
V\u112b\u1175\u11ab
p2025
sI59556
V\u112b\u1175\u11af
p2026
sI59557
V\u112b\u1175\u11d9
p2027
sI59558
V\u112b\u1175\u11bc
p2028
sI59559
V\u112b\u119e
p2029
sI59560
V\u112b\u119e\u11a8
p2030
sI59561
V\u112b\u119e\u11ab
p2031
sI59562
V\u112b\u119e\u11af
p2032
sI59563
V\u112b\u119e\u11b0
p2033
sI59564
V\u112b\u119e\u11b2
p2034
sI59565
V\u112b\u119e\u11b3
p2035
sI59566
V\u112b\u119e\u11d9
p2036
sI59567
V\u112b\u119e\u11b7
p2037
sI59568
V\u112b\u119e\u11eb
p2038
sI59569
V\u112b\u119e\u11bc
p2039
sI59570
V\u112b\u11a1
p2040
sI59571
V\u112b\u11a1\u11a8
p2041
sI59572
V\u112b\u11a1\u11ab
p2042
sI59573
V\u112b\u11a1\u11af
p2043
sI59574
V\u112c\u1161
p2044
sI59575
V\u112c\u1161\u11ab
p2045
sI59576
V\u112c\u1161\u11bc
p2046
sI59577
V\u112c\u1161\u11f0
p2047
sI59578
V\u112c\u1161\u11f9
p2048
sI59579
V\u112c\u1169
p2049
sI59580
V\u112c\u1169\u11ab
p2050
sI59581
V\u112c\u116a
p2051
sI59582
V\u112c\u116a\u11ab
p2052
sI59583
V\u112c\u116e
p2053
sI59584
V\u112c\u116e\u11ab
p2054
sI59585
V\u112c\u116e\u11bc
p2055
sI59586
V\u112c\u116e\u11f0
p2056
sI59587
V\u112c\u116e\u11f9
p2057
sI59588
V\u112c\u1172
p2058
sI59589
V\u112c\u1172\u11ab
p2059
sI59590
V\u112c\u1173
p2060
sI59591
V\u112c\u1173\u11ab
p2061
sI59592
V\u112c\u1173\u11b7
p2062
sI59593
V\u112c\u1173\u11e2
p2063
sI59594
V\u112c\u1173\u11bc
p2064
sI59595
V\u112c\u1174
p2065
sI59596
V\u112c\u1175
p2066
sI59597
V\u1109\u1161\u11c7
p2067
sI59598
V\u1109\u1161\u11ca
p2068
sI59599
V\u1109\u1161\ud7d4
p2069
sI59600
V\u1109\u1161\u11cd
p2070
sI59601
V\u1109\u1161\u11d0
p2071
sI59602
V\u1109\u1161\u11d9
p2072
sI59603
V\u1109\u1161\u11dd
p2073
sI59604
V\u1109\u1161\u11e2
p2074
sI59605
V\u1109\u1161\u11e7
p2075
sI59606
V\u1109\u1161\u11e8
p2076
sI59607
V\u1109\u1161\ud7f2
p2077
sI59608
V\u1109\u1161\u11eb
p2078
sI59609
V\u1109\u1161\u11f1
p2079
sI59610
V\u1109\u1161\u11f0
p2080
sI59611
V\u1109\u1161\u11f1
p2081
sI59612
V\u1109\u1161\u11f9
p2082
sI59613
V\u1109\u1176
p2083
sI59614
V\u1109\u1177
p2084
sI59615
V\u1109\u11a3
p2085
sI59616
V\u1109\u11a3\u11b7
p2086
sI59617
V\u1109\u1162\u11e6
p2087
sI59618
V\u1109\u1162\u11f0
p2088
sI59619
V\u1109\u1163\u11d9
p2089
sI59620
V\u1109\u1163\u11e2
p2090
sI59621
V\u1109\u1163\u11eb
p2091
sI59622
V\u1109\u1163\u11f0
p2092
sI59623
V\u1109\u1163\u11f1
p2093
sI59624
V\u1109\u1178
p2094
sI59625
V\u1109\u1165\u11c3
p2095
sI59626
V\u1109\u1165\u11d9
p2096
sI59627
V\u1109\u1165\u11e5
p2097
sI59628
V\u1109\u1165\u11e7
p2098
sI59629
V\u1109\u1165\u11eb
p2099
sI59630
V\u1109\u1165\u11ec
p2100
sI59631
V\u1109\u1165\u11ed
p2101
sI59632
V\u1109\u1165\u11f0
p2102
sI59633
V\u1109\u1165\u11f9
p2103
sI59634
V\u1109\u117a
p2104
sI59635
V\u1109\u117b
p2105
sI59636
V\u1109\u117c
p2106
sI59637
V\u1109\u117c\u11a8
p2107
sI59638
V\u1109\u117c\u11af
p2108
sI59639
V\u1109\u117c\u11b7
p2109
sI59640
V\u1109\u117c\u11ba
p2110
sI59641
V\u1109\u117c\u11bb
p2111
sI59642
V\u1109\u117c\u11bc
p2112
sI59643
V\u1109\u1166\ud7fb
p2113
sI59644
V\u1109\u1167\u11d5
p2114
sI59645
V\u1109\u1167\u11d9
p2115
sI59646
V\u1109\u1167\u11dd
p2116
sI59647
V\u1109\u1167\u11e2
p2117
sI59648
V\u1109\u1167\u11e3
p2118
sI59649
V\u1109\u1167\u11e4
p2119
sI59650
V\u1109\u1167\u11e5
p2120
sI59651
V\u1109\u1167\u11e7
p2121
sI59652
V\u1109\u1167\u11f0
p2122
sI59653
V\u1109\u1167\u11f1
p2123
sI59654
V\u1109\u1167\u11f9
p2124
sI59655
V\u1109\u117d
p2125
sI59656
V\u1109\u117e
p2126
sI59657
V\u1109\u1168\u11f0
p2127
sI59658
V\u1109\u1169\u11c7
p2128
sI59659
V\u1109\u1169\u11d9
p2129
sI59660
V\u1109\u1169\u11e2
p2130
sI59661
V\u1109\u1169\ud7e7
p2131
sI59662
V\u1109\u1169\u11e8
p2132
sI59663
V\u1109\u1169\ud7f0
p2133
sI59664
V\u1109\u1169\u11eb
p2134
sI59665
V\u1109\u1169\u11f0
p2135
sI59666
V\u1109\u116a\u11d9
p2136
sI59667
V\u1109\u116a\u11f0
p2137
sI59668
V\u1109\u116a\u11f9
p2138
sI59669
V\u1109\u116b\u11f9
p2139
sI59670
V\u1109\u11a6
p2140
sI59671
V\u1109\u11a7
p2141
sI59672
V\u1109\u1182
p2142
sI59673
V\u1109\u116c\u11f0
p2143
sI59674
V\u1109\u116d\u11d9
p2144
sI59675
V\u1109\u116d\u11e2
p2145
sI59676
V\u1109\u116d\u11f0
p2146
sI59677
V\u1109\u116d\u11f1
p2147
sI59678
V\u1109\u1187
p2148
sI59679
V\u1109\u1187\u11af
p2149
sI59680
V\u1109\u1188
p2150
sI59681
V\u1109\u1188\u11ab
p2151
sI59682
V\u1109\u1188\u11af
p2152
sI59683
V\u1109\u1188\u11ba
p2153
sI59684
V\u1109\u116e\u11d0
p2154
sI59685
V\u1109\u116e\u11d9
p2155
sI59686
V\u1109\u116e\u11e2
p2156
sI59687
V\u1109\u116e\u11e4
p2157
sI59688
V\u1109\u116e\u11e6
p2158
sI59689
V\u1109\u116e\u11e7
p2159
sI59690
V\u1109\u116e\ud7f0
p2160
sI59691
V\u1109\u116e\u11eb
p2161
sI59692
V\u1109\u116e\u11f0
p2162
sI59693
V\u1109\u116e\u11f9
p2163
sI59694
V\u1109\u1189
p2164
sI59695
V\u1109\u1189\u11ab
p2165
sI59696
V\u1109\u1189\u11b7
p2166
sI59697
V\u1109\ud7b5
p2167
sI59698
V\u1109\ud7b5\u11ab
p2168
sI59699
V\u1109\u118c
p2169
sI59700
V\u1109\u1171\u11d9
p2170
sI59701
V\u1109\u1171\u11e6
p2171
sI59702
V\u1109\u1171\u11e7
p2172
sI59703
V\u1109\u1172\u11d9
p2173
sI59704
V\u1109\u1172\u11e2
p2174
sI59705
V\u1109\u1172\u11e6
p2175
sI59706
V\u1109\u1172\u11f0
p2176
sI59707
V\u1109\u118e
p2177
sI59708
V\u1109\u118e\u11ab
p2178
sI59709
V\u1109\u118e\u11f0
p2179
sI59710
V\u1109\ud7b7
p2180
sI59711
V\u1109\u118f
p2181
sI59712
V\u1109\u1190
p2182
sI59713
V\u1109\u1191
p2183
sI59714
V\u1109\u1191\u11ab
p2184
sI59715
V\u1109\u1191\u11af
p2185
sI59716
V\u1109\u1191\u11d9
p2186
sI59717
V\u1109\u1191\u11f0
p2187
sI59718
V\u1109\u1191\u11f9
p2188
sI59719
V\u1109\u1192
p2189
sI59720
V\u1109\u1192\u11bc
p2190
sI59721
V\u1109\ud7b8
p2191
sI59722
V\u1109\ud7b8\u11af
p2192
sI59723
V\u1109\u1193
p2193
sI59724
V\u1109\u1193\u11af
p2194
sI59725
V\u1109\u1194
p2195
sI59726
V\u1109\u1194\u11ab
p2196
sI59727
V\u1109\u1194\u11af
p2197
sI59728
V\u1109\u1194\u11b7
p2198
sI59729
V\u1109\u1194\u11b8
p2199
sI59730
V\u1109\u1194\u11bc
p2200
sI59731
V\u1109\u1173\u11d9
p2201
sI59732
V\u1109\u1173\u11e2
p2202
sI59733
V\u1109\u1173\u11e3
p2203
sI59734
V\u1109\u1173\ud7f0
p2204
sI59735
V\u1109\u1173\ud7f2
p2205
sI59736
V\u1109\u1173\u11eb
p2206
sI59737
V\u1109\u1173\u11f1
p2207
sI59738
V\u1109\u1173\ud7f6
p2208
sI59739
V\u1109\u1173\u11f0
p2209
sI59740
V\u1109\u1173\u11f2
p2210
sI59741
V\u1109\u1173\u11f9
p2211
sI59742
V\u1109\u1195
p2212
sI59743
V\u1109\u1196
p2213
sI59744
V\u1109\u1174\u11f0
p2214
sI59745
V\u1109\u1174\u11f9
p2215
sI59746
V\u1109\u1175\u11fa
p2216
sI59747
V\u1109\u1175\u11ff
p2217
sI59748
V\u1109\u1175\u11c7
p2218
sI59749
V\u1109\u1175\u11ce
p2219
sI59750
V\u1109\u1175\u11d0
p2220
sI59751
V\u1109\u1175\u11d9
p2221
sI59752
V\u1109\u1175\u11da
p2222
sI59753
V\u1109\u1175\u11e1
p2223
sI59754
V\u1109\u1175\u11e2
p2224
sI59755
V\u1109\u1175\u11e6
p2225
sI59756
V\u1109\u1175\u11eb
p2226
sI59757
V\u1109\u1175\u11f0
p2227
sI59758
V\u1109\u1175\u11f9
p2228
sI59759
V\u1109\u1198
p2229
sI59760
V\u1109\u1199
p2230
sI59761
V\u1109\u1199\u11ab
p2231
sI59762
V\u1109\u1199\u11bc
p2232
sI59763
V\u1109\ud7bd
p2233
sI59764
V\u1109\ud7be
p2234
sI59765
V\u1109\ud7bf
p2235
sI59766
V\u1109\ud7c0
p2236
sI59767
V\u1109\u119a
p2237
sI59768
V\u1109\ud7c1
p2238
sI59769
V\u1109\ud7c2
p2239
sI59770
V\u1109\u119b
p2240
sI59771
V\u1109\ud7c3
p2241
sI59772
V\u1109\ud7c3\u11ab
p2242
sI59773
V\u1109\u119e
p2243
sI59774
V\u1109\u119e\u11a8
p2244
sI59775
V\u1109\u119e\u11ab
p2245
sI59776
V\u1109\u119e\u11ae
p2246
sI59777
V\u1109\u119e\u11ca
p2247
sI59778
V\u1109\u119e\u11af
p2248
sI59779
V\u1109\u119e\u11b0
p2249
sI59780
V\u1109\u119e\u11d0
p2250
sI59781
V\u1109\u119e\u11b1
p2251
sI59782
V\u1109\u119e\u11b2
p2252
sI59783
V\u1109\u119e\u11d5
p2253
sI59784
V\u1109\u119e\u11b3
p2254
sI59785
V\u1109\u119e\u11b6
p2255
sI59786
V\u1109\u119e\u11d9
p2256
sI59787
V\u1109\u119e\u11b7
p2257
sI59788
V\u1109\u119e\ud7e0
p2258
sI59789
V\u1109\u119e\u11dd
p2259
sI59790
V\u1109\u119e\u11b8
p2260
sI59791
V\u1109\u119e\u11e3
p2261
sI59792
V\u1109\u119e\u11e6
p2262
sI59793
V\u1109\u119e\u11ba
p2263
sI59794
V\u1109\u119e\ud7f0
p2264
sI59795
V\u1109\u119e\u11eb
p2265
sI59796
V\u1109\u119e\u11bc
p2266
sI59797
V\u1109\u119e\u11f0
p2267
sI59798
V\u1109\u119e\u11bd
p2268
sI59799
V\u1109\u119e\u11be
p2269
sI59800
V\u1109\u119e\u11c0
p2270
sI59801
V\u1109\u11a1
p2271
sI59802
V\u1109\u11a1\u11a8
p2272
sI59803
V\u1109\u11a1\u11ab
p2273
sI59804
V\u1109\u11a1\u11af
p2274
sI59805
V\u1109\u11a1\u11d9
p2275
sI59806
V\u1109\u11a1\u11b7
p2276
sI59807
V\u1109\u11a1\u11dd
p2277
sI59808
V\u1109\u11a1\u11b8
p2278
sI59809
V\u1109\u11a1\u11ba
p2279
sI59810
V\u1109\u11a1\u11bc
p2280
sI59811
V\u1109\u11a1\u11f0
p2281
sI59812
V\u1109\u11a1\u11f1
p2282
sI59813
V\u112d\u1161
p2283
sI59814
V\u112d\u1161\u11a8
p2284
sI59815
V\u112d\u1161\u11a9
p2285
sI59816
V\u112d\u1161\u11aa
p2286
sI59817
V\u112d\u1161\u11ab
p2287
sI59818
V\u112d\u1161\u11af
p2288
sI59819
V\u112d\u1161\u11b6
p2289
sI59820
V\u112d\u1161\u11b7
p2290
sI59821
V\u112d\u1161\u11b8
p2291
sI59822
V\u112d\u1161\u11b9
p2292
sI59823
V\u112d\u1161\u11e6
p2293
sI59824
V\u112d\u1161\u11ba
p2294
sI59825
V\u112d\u1161\u11e7
p2295
sI59826
V\u112d\u1161\u11bc
p2296
sI59827
V\u112d\u1161\u11f0
p2297
sI59828
V\u112d\u1162
p2298
sI59829
V\u112d\u1162\u11a8
p2299
sI59830
V\u112d\u1162\u11ab
p2300
sI59831
V\u112d\u1162\u11af
p2301
sI59832
V\u112d\u1162\u11b7
p2302
sI59833
V\u112d\u1162\u11ba
p2303
sI59834
V\u112d\u1162\u11f0
p2304
sI59835
V\u112d\u1163
p2305
sI59836
V\u112d\u1163\u11a8
p2306
sI59837
V\u112d\u1164
p2307
sI59838
V\u112d\u1164\u11ba
p2308
sI59839
V\u112d\u1165
p2309
sI59840
V\u112d\u1165\u11a8
p2310
sI59841
V\u112d\u1165\u11a9
p2311
sI59842
V\u112d\u1165\u11ab
p2312
sI59843
V\u112d\u1165\u11af
p2313
sI59844
V\u112d\u1165\u11b2
p2314
sI59845
V\u112d\u1165\u11d5
p2315
sI59846
V\u112d\u1165\u11b7
p2316
sI59847
V\u112d\u1165\u11b8
p2317
sI59848
V\u112d\u1165\u11e6
p2318
sI59849
V\u112d\u1165\u11ba
p2319
sI59850
V\u112d\u1165\u11e7
p2320
sI59851
V\u112d\u1165\u11eb
p2321
sI59852
V\u112d\u1165\u11f0
p2322
sI59853
V\u112d\u1166
p2323
sI59854
V\u112d\u1166\u11a8
p2324
sI59855
V\u112d\u1166\u11ab
p2325
sI59856
V\u112d\u1166\u11af
p2326
sI59857
V\u112d\u1166\u11b7
p2327
sI59858
V\u112d\u1166\u11b8
p2328
sI59859
V\u112d\u1166\u11ba
p2329
sI59860
V\u112d\u1166\u11f0
p2330
sI59861
V\u112d\u1167
p2331
sI59862
V\u112d\u1167\u11a8
p2332
sI59863
V\u112d\u1167\u11ab
p2333
sI59864
V\u112d\u1167\u11ae
p2334
sI59865
V\u112d\u1167\u11af
p2335
sI59866
V\u112d\u1167\u11b7
p2336
sI59867
V\u112d\u1167\u11b8
p2337
sI59868
V\u112d\u1167\u11ba
p2338
sI59869
V\u112d\u1167\u11bc
p2339
sI59870
V\u112d\u1167\u11f0
p2340
sI59871
V\u112d\u1167\u11c0
p2341
sI59872
V\u112d\u1168
p2342
sI59873
V\u112d\u1169
p2343
sI59874
V\u112d\u1169\u11a8
p2344
sI59875
V\u112d\u1169\u11aa
p2345
sI59876
V\u112d\u1169\u11ab
p2346
sI59877
V\u112d\u1169\u11ae
p2347
sI59878
V\u112d\u1169\u11af
p2348
sI59879
V\u112d\u1169\u11b3
p2349
sI59880
V\u112d\u1169\u11b7
p2350
sI59881
V\u112d\u1169\u11b8
p2351
sI59882
V\u112d\u1169\u11ba
p2352
sI59883
V\u112d\u1169\ud7f0
p2353
sI59884
V\u112d\u1169\u11bc
p2354
sI59885
V\u112d\u1169\u11f0
p2355
sI59886
V\u112d\u1169\u11bd
p2356
sI59887
V\u112d\u1169\u11be
p2357
sI59888
V\u112d\u116a
p2358
sI59889
V\u112d\u116a\u11a8
p2359
sI59890
V\u112d\u116a\u11ab
p2360
sI59891
V\u112d\u116a\u11af
p2361
sI59892
V\u112d\u116a\u11bc
p2362
sI59893
V\u112d\u116a\u11f0
p2363
sI59894
V\u112d\u116b
p2364
sI59895
V\u112d\u116b\u11af
p2365
sI59896
V\u112d\u116b\u11b0
p2366
sI59897
V\u112d\u116b\u11bc
p2367
sI59898
V\u112d\u116c
p2368
sI59899
V\u112d\u116c\u11a8
p2369
sI59900
V\u112d\u116c\u11ab
p2370
sI59901
V\u112d\u116c\u11af
p2371
sI59902
V\u112d\u116c\u11b7
p2372
sI59903
V\u112d\u116c\u11ba
p2373
sI59904
V\u112d\u116c\u11f0
p2374
sI59905
V\u112d\u116d
p2375
sI59906
V\u112d\u116d\u11ab
p2376
sI59907
V\u112d\u116d\u11af
p2377
sI59908
V\u112d\u116d\u11b7
p2378
sI59909
V\u112d\u116e
p2379
sI59910
V\u112d\u116e\u11a8
p2380
sI59911
V\u112d\u116e\u11ab
p2381
sI59912
V\u112d\u116e\u11ae
p2382
sI59913
V\u112d\u116e\u11af
p2383
sI59914
V\u112d\u116e\u11d9
p2384
sI59915
V\u112d\u116e\u11b7
p2385
sI59916
V\u112d\u116e\u11da
p2386
sI59917
V\u112d\u116e\ud7e0
p2387
sI59918
V\u112d\u116e\u11dd
p2388
sI59919
V\u112d\u116e\u11b8
p2389
sI59920
V\u112d\u116e\u11ba
p2390
sI59921
V\u112d\u116e\u11bc
p2391
sI59922
V\u112d\u116e\u11ec
p2392
sI59923
V\u112d\u116e\u11f0
p2393
sI59924
V\u112d\u116e\u11bd
p2394
sI59925
V\u112d\u116e\u11be
p2395
sI59926
V\u112d\u116f
p2396
sI59927
V\u112d\u116f\u11a8
p2397
sI59928
V\u112d\u116f\u11ab
p2398
sI59929
V\u112d\u116f\u11af
p2399
sI59930
V\u112d\u116f\u11b7
p2400
sI59931
V\u112d\u116f\u11bc
p2401
sI59932
V\u112d\u116f\u11f0
p2402
sI59933
V\u112d\u1170
p2403
sI59934
V\u112d\u1170\u11ab
p2404
sI59935
V\u112d\u1170\u11af
p2405
sI59936
V\u112d\ud7b5
p2406
sI59937
V\u112d\u118c
p2407
sI59938
V\u112d\u1171
p2408
sI59939
V\u112d\u1171\u11ab
p2409
sI59940
V\u112d\u1171\u11af
p2410
sI59941
V\u112d\u1171\u11b7
p2411
sI59942
V\u112d\u1171\u11f0
p2412
sI59943
V\u112d\u1172
p2413
sI59944
V\u112d\u1172\u11ab
p2414
sI59945
V\u112d\u1172\u11af
p2415
sI59946
V\u112d\u1172\u11b7
p2416
sI59947
V\u112d\u118f
p2417
sI59948
V\u112d\u118f\u11bc
p2418
sI59949
V\u112d\u1194
p2419
sI59950
V\u112d\u1173
p2420
sI59951
V\u112d\u1173\u11a8
p2421
sI59952
V\u112d\u1173\u11ab
p2422
sI59953
V\u112d\u1173\ud7cc
p2423
sI59954
V\u112d\u1173\u11ad
p2424
sI59955
V\u112d\u1173\u11ae
p2425
sI59956
V\u112d\u1173\ud7d3
p2426
sI59957
V\u112d\u1173\u11af
p2427
sI59958
V\u112d\u1173\u11d0
p2428
sI59959
V\u112d\u1173\u11b3
p2429
sI59960
V\u112d\u1173\u11b4
p2430
sI59961
V\u112d\u1173\u11b6
p2431
sI59962
V\u112d\u1173\u11d9
p2432
sI59963
V\u112d\u1173\u11b7
p2433
sI59964
V\u112d\u1173\u11ba
p2434
sI59965
V\u112d\u1173\ud7f0
p2435
sI59966
V\u112d\u1173\ud7f1
p2436
sI59967
V\u112d\u1173\ud7f2
p2437
sI59968
V\u112d\u1173\u11eb
p2438
sI59969
V\u112d\u1173\u11bc
p2439
sI59970
V\u112d\u1173\u11f0
p2440
sI59971
V\u112d\u1173\u11be
p2441
sI59972
V\u112d\u1173\u11c0
p2442
sI59973
V\u112d\u1174
p2443
sI59974
V\u112d\u1174\u11ab
p2444
sI59975
V\u112d\u1174\u11af
p2445
sI59976
V\u112d\u1174\u11d0
p2446
sI59977
V\u112d\u1174\u11b7
p2447
sI59978
V\u112d\u1174\u11ba
p2448
sI59979
V\u112d\u1175
p2449
sI59980
V\u112d\u1175\u11a8
p2450
sI59981
V\u112d\u1175\u11ab
p2451
sI59982
V\u112d\u1175\u11ad
p2452
sI59983
V\u112d\u1175\u11ae
p2453
sI59984
V\u112d\u1175\u11af
p2454
sI59985
V\u112d\u1175\u11b6
p2455
sI59986
V\u112d\u1175\u11b7
p2456
sI59987
V\u112d\u1175\u11b8
p2457
sI59988
V\u112d\u1175\u11ba
p2458
sI59989
V\u112d\u1175\u11bc
p2459
sI59990
V\u112d\u1175\u11c2
p2460
sI59991
V\u112d\u1198
p2461
sI59992
V\u112d\u119e
p2462
sI59993
V\u112d\u119e\u11a8
p2463
sI59994
V\u112d\u119e\u11ab
p2464
sI59995
V\u112d\u119e\u11ae
p2465
sI59996
V\u112d\u119e\u11af
p2466
sI59997
V\u112d\u119e\u11b7
p2467
sI59998
V\u112d\u119e\u11b8
p2468
sI59999
V\u112d\u119e\u11ba
p2469
sI60000
V\u112d\u119e\u11f0
p2470
sI60001
V\u112d\u11a1
p2471
sI60002
V\u112d\u11a1\u11a8
p2472
sI60003
V\u112d\u11a1\u11ab
p2473
sI60004
V\u112d\u11a1\u11af
p2474
sI60005
V\u112d\u11a1\u11d9
p2475
sI60006
V\u112d\u11a1\u11b7
p2476
sI60007
V\u112d\u11a1\u11b8
p2477
sI60008
V\u112d\u11a1\u11ba
p2478
sI60009
V\u112d\u11a1\u11bc
p2479
sI60010
V\u112e\u1161
p2480
sI60011
V\u112e\u1161\u11af
p2481
sI60012
V\u112e\u1167
p2482
sI60013
V\u112e\u1167\u11a8
p2483
sI60014
V\u112e\u1169
p2484
sI60015
V\u112e\u1175
p2485
sI60016
V\u112e\u119e
p2486
sI60017
V\u112f\u1161
p2487
sI60018
V\u112f\u1161\u11a8
p2488
sI60019
V\u112f\u1161\u11ab
p2489
sI60020
V\u112f\u1161\u11ae
p2490
sI60021
V\u112f\u1161\u11af
p2491
sI60022
V\u112f\u1161\u11b6
p2492
sI60023
V\u112f\u1161\u11b7
p2493
sI60024
V\u112f\u1161\u11b8
p2494
sI60025
V\u112f\u1161\u11ba
p2495
sI60026
V\u112f\u1161\u11bc
p2496
sI60027
V\u112f\u1161\ud7f6
p2497
sI60028
V\u112f\u1161\u11f0
p2498
sI60029
V\u112f\u1161\ud7f6
p2499
sI60030
V\u112f\u1161\u11c2
p2500
sI60031
V\u112f\u1162
p2501
sI60032
V\u112f\u1162\u11a8
p2502
sI60033
V\u112f\u1162\u11ab
p2503
sI60034
V\u112f\u1162\u11af
p2504
sI60035
V\u112f\u1162\u11b7
p2505
sI60036
V\u112f\u1162\u11b8
p2506
sI60037
V\u112f\u1162\u11ba
p2507
sI60038
V\u112f\u1162\u11bc
p2508
sI60039
V\u112f\u1162\u11f0
p2509
sI60040
V\u112f\u1163
p2510
sI60041
V\u112f\u1163\u11a8
p2511
sI60042
V\u112f\u1163\u11bc
p2512
sI60043
V\u112f\u1163\u11f0
p2513
sI60044
V\u112f\u1164
p2514
sI60045
V\u112f\u1165
p2515
sI60046
V\u112f\u1165\u11a8
p2516
sI60047
V\u112f\u1165\u11ab
p2517
sI60048
V\u112f\u1165\u11ae
p2518
sI60049
V\u112f\u1165\u11af
p2519
sI60050
V\u112f\u1165\u11b0
p2520
sI60051
V\u112f\u1165\u11b2
p2521
sI60052
V\u112f\u1165\u11b7
p2522
sI60053
V\u112f\u1165\u11b8
p2523
sI60054
V\u112f\u1165\u11ba
p2524
sI60055
V\u112f\u1165\u11bc
p2525
sI60056
V\u112f\u1165\u11f0
p2526
sI60057
V\u112f\u1165\u11bf
p2527
sI60058
V\u112f\u117c
p2528
sI60059
V\u112f\u117c\u11ba
p2529
sI60060
V\u112f\u117c\u11bb
p2530
sI60061
V\u112f\u117c\u11bf
p2531
sI60062
V\u112f\u1166
p2532
sI60063
V\u112f\u1166\u11a8
p2533
sI60064
V\u112f\u1166\u11ab
p2534
sI60065
V\u112f\u1166\u11af
p2535
sI60066
V\u112f\u1166\u11b7
p2536
sI60067
V\u112f\u1166\u11ba
p2537
sI60068
V\u112f\u1166\u11bc
p2538
sI60069
V\u112f\u1167
p2539
sI60070
V\u112f\u1167\u11a8
p2540
sI60071
V\u112f\u1167\u11ab
p2541
sI60072
V\u112f\u1167\u11ba
p2542
sI60073
V\u112f\u1167\u11bc
p2543
sI60074
V\u112f\u1168
p2544
sI60075
V\u112f\u1169
p2545
sI60076
V\u112f\u1169\u11a8
p2546
sI60077
V\u112f\u1169\u11aa
p2547
sI60078
V\u112f\u1169\u11ab
p2548
sI60079
V\u112f\u1169\u11af
p2549
sI60080
V\u112f\u1169\u11b7
p2550
sI60081
V\u112f\u1169\u11b8
p2551
sI60082
V\u112f\u1169\u11ba
p2552
sI60083
V\u112f\u1169\u11bc
p2553
sI60084
V\u112f\u1169\u11f0
p2554
sI60085
V\u112f\u1169\u11f1
p2555
sI60086
V\u112f\u116a
p2556
sI60087
V\u112f\u116b
p2557
sI60088
V\u112f\u116c
p2558
sI60089
V\u112f\u116c\u11ab
p2559
sI60090
V\u112f\u116c\u11af
p2560
sI60091
V\u112f\u116d
p2561
sI60092
V\u112f\u116d\u11a8
p2562
sI60093
V\u112f\u116d\u11ba
p2563
sI60094
V\u112f\u116d\u11bc
p2564
sI60095
V\u112f\u116e
p2565
sI60096
V\u112f\u116e\u11a8
p2566
sI60097
V\u112f\u116e\u11ab
p2567
sI60098
V\u112f\u116e\u11af
p2568
sI60099
V\u112f\u116e\u11b0
p2569
sI60100
V\u112f\u116e\u11b2
p2570
sI60101
V\u112f\u116e\u11b7
p2571
sI60102
V\u112f\u116e\u11ba
p2572
sI60103
V\u112f\u116e\u11bc
p2573
sI60104
V\u112f\u116e\u11f0
p2574
sI60105
V\u112f\u116f
p2575
sI60106
V\u112f\u1170
p2576
sI60107
V\u112f\ud7b5
p2577
sI60108
V\u112f\u118c
p2578
sI60109
V\u112f\u1171
p2579
sI60110
V\u112f\u1171\u11ab
p2580
sI60111
V\u112f\u1171\u11af
p2581
sI60112
V\u112f\u1171\u11b7
p2582
sI60113
V\u112f\u1171\u11ba
p2583
sI60114
V\u112f\u1172
p2584
sI60115
V\u112f\u1172\u11a8
p2585
sI60116
V\u112f\u1172\u11af
p2586
sI60117
V\u112f\u1172\u11b7
p2587
sI60118
V\u112f\u1172\u11bc
p2588
sI60119
V\u112f\u1172\u11f0
p2589
sI60120
V\u112f\u1194
p2590
sI60121
V\u112f\u1173
p2591
sI60122
V\u112f\u1173\u11a8
p2592
sI60123
V\u112f\u1173\u11ab
p2593
sI60124
V\u112f\u1173\u11ae
p2594
sI60125
V\u112f\u1173\u11af
p2595
sI60126
V\u112f\u1173\u11b2
p2596
sI60127
V\u112f\u1173\u11b6
p2597
sI60128
V\u112f\u1173\u11b7
p2598
sI60129
V\u112f\u1173\u11b8
p2599
sI60130
V\u112f\u1173\u11ba
p2600
sI60131
V\u112f\u1173\u11bc
p2601
sI60132
V\u112f\u1173\u11f0
p2602
sI60133
V\u112f\u1173\u11f1
p2603
sI60134
V\u112f\u1173\u11bd
p2604
sI60135
V\u112f\u1174
p2605
sI60136
V\u112f\u1174\u11ab
p2606
sI60137
V\u112f\u1174\u11af
p2607
sI60138
V\u112f\u1174\u11ba
p2608
sI60139
V\u112f\u1174\u11eb
p2609
sI60140
V\u112f\u1174\u11be
p2610
sI60141
V\u112f\u1175
p2611
sI60142
V\u112f\u1175\u11a8
p2612
sI60143
V\u112f\u1175\u11ab
p2613
sI60144
V\u112f\u1175\u11ae
p2614
sI60145
V\u112f\u1175\u11af
p2615
sI60146
V\u112f\u1175\u11b7
p2616
sI60147
V\u112f\u1175\u11ba
p2617
sI60148
V\u112f\u1175\ud7f2
p2618
sI60149
V\u112f\u1175\u11bc
p2619
sI60150
V\u112f\u1175\u11c2
p2620
sI60151
V\u112f\u1198
p2621
sI60152
V\u112f\u119e
p2622
sI60153
V\u112f\u119e\u11a8
p2623
sI60154
V\u112f\u119e\u11ab
p2624
sI60155
V\u112f\u119e\u11ae
p2625
sI60156
V\u112f\u119e\u11af
p2626
sI60157
V\u112f\u119e\u11b6
p2627
sI60158
V\u112f\u119e\u11b7
p2628
sI60159
V\u112f\u119e\u11b8
p2629
sI60160
V\u112f\u119e\u11ba
p2630
sI60161
V\u112f\u119e\u11bc
p2631
sI60162
V\u112f\u119e\u11f0
p2632
sI60163
V\u112f\u119e\u11c2
p2633
sI60164
V\u112f\u11a1
p2634
sI60165
V\u112f\u11a1\u11a8
p2635
sI60166
V\u112f\u11a1\u11ab
p2636
sI60167
V\u112f\u11a1\u11af
p2637
sI60168
V\u112f\u11a1\u11b7
p2638
sI60169
V\u112f\u11a1\u11b8
p2639
sI60170
V\u112f\u11a1\u11ba
p2640
sI60171
V\u112f\u11a1\u11bc
p2641
sI60172
V\u112f\u11a1\u11f0
p2642
sI60173
V\u1130\u1161
p2643
sI60174
V\u1130\u1162
p2644
sI60175
V\u1130\u1162\u11ab
p2645
sI60176
V\u1130\u1163
p2646
sI60177
V\u1130\u1165
p2647
sI60178
V\u1130\u1165\u11ba
p2648
sI60179
V\u1130\u1166
p2649
sI60180
V\u1130\u1167
p2650
sI60181
V\u1130\u1167\u11ba
p2651
sI60182
V\u1130\u116e
p2652
sI60183
V\u1130\u1172
p2653
sI60184
V\u1130\u1172\u11ab
p2654
sI60185
V\u1130\u1172\u11bc
p2655
sI60186
V\u1130\u1173
p2656
sI60187
V\u1130\u1173\u11ab
p2657
sI60188
V\u1130\u1173\u11af
p2658
sI60189
V\u1130\u1173\u11b7
p2659
sI60190
V\u1130\u1175
p2660
sI60191
V\u1130\u1175\u11ab
p2661
sI60192
V\u1131\u1161
p2662
sI60193
V\u1131\u1161\u11af
p2663
sI60194
V\u1131\u1169
p2664
sI60195
V\u1131\u1173
p2665
sI60196
V\u1131\u1173\u11af
p2666
sI60197
V\u1131\u119e
p2667
sI60198
V\u1131\u119e\u11af
p2668
sI60199
V\u1132\u1161
p2669
sI60200
V\u1132\u1161\u11a8
p2670
sI60201
V\u1132\u1161\u11ab
p2671
sI60202
V\u1132\u1161\u11ae
p2672
sI60203
V\u1132\u1161\u11af
p2673
sI60204
V\u1132\u1161\u11b0
p2674
sI60205
V\u1132\u1161\u11d0
p2675
sI60206
V\u1132\u1161\u11b7
p2676
sI60207
V\u1132\u1161\u11b8
p2677
sI60208
V\u1132\u1161\u11ba
p2678
sI60209
V\u1132\u1161\u11bc
p2679
sI60210
V\u1132\u1161\u11f0
p2680
sI60211
V\u1132\u1161\u11c2
p2681
sI60212
V\u1132\u1162
p2682
sI60213
V\u1132\u1162\u11a8
p2683
sI60214
V\u1132\u1162\u11ab
p2684
sI60215
V\u1132\u1162\u11af
p2685
sI60216
V\u1132\u1162\u11b7
p2686
sI60217
V\u1132\u1162\u11ba
p2687
sI60218
V\u1132\u1162\u11f0
p2688
sI60219
V\u1132\u1163
p2689
sI60220
V\u1132\u1163\u11b7
p2690
sI60221
V\u1132\u1165
p2691
sI60222
V\u1132\u1165\u11a8
p2692
sI60223
V\u1132\u1165\u11ab
p2693
sI60224
V\u1132\u1165\u11ae
p2694
sI60225
V\u1132\u1165\u11af
p2695
sI60226
V\u1132\u1165\u11b7
p2696
sI60227
V\u1132\u1165\u11b8
p2697
sI60228
V\u1132\u1165\u11ba
p2698
sI60229
V\u1132\u1165\u11bc
p2699
sI60230
V\u1132\u1165\u11f0
p2700
sI60231
V\u1132\u1166
p2701
sI60232
V\u1132\u1166\u11ab
p2702
sI60233
V\u1132\u1166\u11af
p2703
sI60234
V\u1132\u1166\u11b7
p2704
sI60235
V\u1132\u1166\u11ba
p2705
sI60236
V\u1132\u1167
p2706
sI60237
V\u1132\u1167\u11a8
p2707
sI60238
V\u1132\u1167\u11ab
p2708
sI60239
V\u1132\u1167\u11af
p2709
sI60240
V\u1132\u1167\u11b7
p2710
sI60241
V\u1132\u1167\u11ba
p2711
sI60242
V\u1132\u1167\ud7f2
p2712
sI60243
V\u1132\u1167\u11f0
p2713
sI60244
V\u1132\u1167\u11c2
p2714
sI60245
V\u1132\u1168
p2715
sI60246
V\u1132\u1169
p2716
sI60247
V\u1132\u1169\u11a8
p2717
sI60248
V\u1132\u1169\u11ab
p2718
sI60249
V\u1132\u1169\u11af
p2719
sI60250
V\u1132\u1169\u11b7
p2720
sI60251
V\u1132\u1169\u11b8
p2721
sI60252
V\u1132\u1169\u11ba
p2722
sI60253
V\u1132\u1169\u11e7
p2723
sI60254
V\u1132\u1169\u11bc
p2724
sI60255
V\u1132\u1169\u11f0
p2725
sI60256
V\u1132\u1169\u11f1
p2726
sI60257
V\u1132\u1169\u11c2
p2727
sI60258
V\u1132\u116a
p2728
sI60259
V\u1132\u116b
p2729
sI60260
V\u1132\u116c
p2730
sI60261
V\u1132\u116d
p2731
sI60262
V\u1132\u116e
p2732
sI60263
V\u1132\u116e\u11a8
p2733
sI60264
V\u1132\u116e\u11ab
p2734
sI60265
V\u1132\u116e\u11ae
p2735
sI60266
V\u1132\u116e\u11af
p2736
sI60267
V\u1132\u116e\u11b1
p2737
sI60268
V\u1132\u116e\u11b7
p2738
sI60269
V\u1132\u116e\u11ba
p2739
sI60270
V\u1132\u116e\u11bc
p2740
sI60271
V\u1132\u116e\u11bd
p2741
sI60272
V\u1132\u116e\u11be
p2742
sI60273
V\u1132\u116f
p2743
sI60274
V\u1132\u1170
p2744
sI60275
V\u1132\ud7b5
p2745
sI60276
V\u1132\u118c
p2746
sI60277
V\u1132\u1171
p2747
sI60278
V\u1132\u1172
p2748
sI60279
V\u1132\u1194
p2749
sI60280
V\u1132\u1173
p2750
sI60281
V\u1132\u1173\u11a8
p2751
sI60282
V\u1132\u1173\u11ab
p2752
sI60283
V\u1132\u1173\u11af
p2753
sI60284
V\u1132\u1173\u11b3
p2754
sI60285
V\u1132\u1173\u11b7
p2755
sI60286
V\u1132\u1173\u11ba
p2756
sI60287
V\u1132\u1173\u11bc
p2757
sI60288
V\u1132\u1174
p2758
sI60289
V\u1132\u1174\u11af
p2759
sI60290
V\u1132\u1175
p2760
sI60291
V\u1132\u1175\u11a8
p2761
sI60292
V\u1132\u1175\u11ab
p2762
sI60293
V\u1132\u1175\u11af
p2763
sI60294
V\u1132\u1175\u11b7
p2764
sI60295
V\u1132\u1175\u11ba
p2765
sI60296
V\u1132\u1175\u11e7
p2766
sI60297
V\u1132\u1175\ud7f2
p2767
sI60298
V\u1132\u1175\u11f0
p2768
sI60299
V\u1132\u1175\u11be
p2769
sI60300
V\u1132\u1175\u11c2
p2770
sI60301
V\u1132\u1198
p2771
sI60302
V\u1132\u119e
p2772
sI60303
V\u1132\u119e\u11a8
p2773
sI60304
V\u1132\u119e\u11ab
p2774
sI60305
V\u1132\u119e\u11af
p2775
sI60306
V\u1132\u119e\u11d0
p2776
sI60307
V\u1132\u119e\u11b7
p2777
sI60308
V\u1132\u119e\u11b8
p2778
sI60309
V\u1132\u119e\u11ba
p2779
sI60310
V\u1132\u119e\u11bc
p2780
sI60311
V\u1132\u11a1
p2781
sI60312
V\u1132\u11a1\u11a8
p2782
sI60313
V\u1132\u11a1\u11ab
p2783
sI60314
V\u1132\u11a1\u11af
p2784
sI60315
V\u1132\u11a1\u11b7
p2785
sI60316
V\u1132\u11a1\u11ba
p2786
sI60317
V\u1132\u11a1\u11e7
p2787
sI60318
V\u1132\u11a1\u11bc
p2788
sI60319
V\u1132\u11a1\u11f0
p2789
sI60320
V\u1133\u1161
p2790
sI60321
V\u1133\u1162
p2791
sI60322
V\u1133\u116e
p2792
sI60323
V\u1133\u116e\u11af
p2793
sI60324
V\u1133\u1173
p2794
sI60325
V\u1133\u1173\u11af
p2795
sI60326
V\u1133\u1174
p2796
sI60327
V\u1133\u1175
p2797
sI60328
V\u110a\u1161\u11e2
p2798
sI60329
V\u110a\u1161\ud7f2
p2799
sI60330
V\u110a\u1161\u11f0
p2800
sI60331
V\u110a\u1163\u11e2
p2801
sI60332
V\u110a\u1163\u11f0
p2802
sI60333
V\u110a\u1165\u11f0
p2803
sI60334
V\u110a\u1167\u11d9
p2804
sI60335
V\u110a\u1167\u11f0
p2805
sI60336
V\u110a\u1167\u11f9
p2806
sI60337
V\u110a\u1169\u11e2
p2807
sI60338
V\u110a\u1169\u11f0
p2808
sI60339
V\u110a\u116d\u11e2
p2809
sI60340
V\u110a\u116d\u11f0
p2810
sI60341
V\u110a\u1188
p2811
sI60342
V\u110a\u116e\u11d9
p2812
sI60343
V\u110a\u116e\u11e2
p2813
sI60344
V\u110a\u116e\u11f9
p2814
sI60345
V\u110a\u1189
p2815
sI60346
V\u110a\u1189\u11ab
p2816
sI60347
V\u110a\u1189\u11bc
p2817
sI60348
V\u110a\ud7b5
p2818
sI60349
V\u110a\ud7b5\u11ab
p2819
sI60350
V\u110a\u118c
p2820
sI60351
V\u110a\u1172\u11d9
p2821
sI60352
V\u110a\u1172\u11e2
p2822
sI60353
V\u110a\u1172\u11f0
p2823
sI60354
V\u110a\u1172\u11f9
p2824
sI60355
V\u110a\u1191
p2825
sI60356
V\u110a\u1191\u11ab
p2826
sI60357
V\u110a\u1191\u11bc
p2827
sI60358
V\u110a\u1192
p2828
sI60359
V\u110a\u1192\u11bc
p2829
sI60360
V\u110a\u1194
p2830
sI60361
V\u110a\u1194\u11bc
p2831
sI60362
V\u110a\u1194\u11f0
p2832
sI60363
V\u110a\u1173\u11d9
p2833
sI60364
V\u110a\u1173\u11eb
p2834
sI60365
V\u110a\u1173\u11f0
p2835
sI60366
V\u110a\u1175\u11d9
p2836
sI60367
V\u110a\u1175\u11e2
p2837
sI60368
V\u110a\u1175\u11eb
p2838
sI60369
V\u110a\u1175\u11f0
p2839
sI60370
V\u110a\u1175\u11f9
p2840
sI60371
V\u110a\u1198
p2841
sI60372
V\u110a\u119e
p2842
sI60373
V\u110a\u119e\u11a8
p2843
sI60374
V\u110a\u119e\u11ab
p2844
sI60375
V\u110a\u119e\u11ae
p2845
sI60376
V\u110a\u119e\u11af
p2846
sI60377
V\u110a\u119e\u11b7
p2847
sI60378
V\u110a\u119e\u11dd
p2848
sI60379
V\u110a\u119e\u11b8
p2849
sI60380
V\u110a\u119e\u11e6
p2850
sI60381
V\u110a\u119e\u11ba
p2851
sI60382
V\u110a\u119e\u11bc
p2852
sI60383
V\u110a\u119e\u11f0
p2853
sI60384
V\u110a\u119e\u11c1
p2854
sI60385
V\u110a\u11a1
p2855
sI60386
V\u110a\u11a1\u11ab
p2856
sI60387
V\u110a\u11a1\u11f0
p2857
sI60388
V\ua975\u1169
p2858
sI60389
V\u1134\u1173
p2859
sI60390
V\u1135\u1173
p2860
sI60391
V\u1135\u1173\u11af
p2861
sI60392
V\u1135\u1173\u11b7
p2862
sI60393
V\u1135\u1175
p2863
sI60394
V\u1135\u1175\u11af
p2864
sI60395
V\u1136\u1161
p2865
sI60396
V\u1136\u1161\u11a8
p2866
sI60397
V\u1136\u1161\u11ab
p2867
sI60398
V\u1136\u1161\u11af
p2868
sI60399
V\u1136\u1161\u11b2
p2869
sI60400
V\u1136\u1161\u11b7
p2870
sI60401
V\u1136\u1161\u11b8
p2871
sI60402
V\u1136\u1161\u11ba
p2872
sI60403
V\u1136\u1161\u11e9
p2873
sI60404
V\u1136\u1161\u11bc
p2874
sI60405
V\u1136\u1161\u11f0
p2875
sI60406
V\u1136\u1162
p2876
sI60407
V\u1136\u1162\u11a8
p2877
sI60408
V\u1136\u1162\u11ab
p2878
sI60409
V\u1136\u1162\u11af
p2879
sI60410
V\u1136\u1162\u11ba
p2880
sI60411
V\u1136\u1162\u11bc
p2881
sI60412
V\u1136\u1162\u11f0
p2882
sI60413
V\u1136\u1163
p2883
sI60414
V\u1136\u1163\u11a8
p2884
sI60415
V\u1136\u1163\u11bc
p2885
sI60416
V\u1136\u1163\u11f0
p2886
sI60417
V\u1136\u1165
p2887
sI60418
V\u1136\u1165\u11a8
p2888
sI60419
V\u1136\u1165\u11ab
p2889
sI60420
V\u1136\u1165\u11af
p2890
sI60421
V\u1136\u1165\u11b7
p2891
sI60422
V\u1136\u1165\u11b8
p2892
sI60423
V\u1136\u1165\u11ba
p2893
sI60424
V\u1136\u1165\u11bc
p2894
sI60425
V\u1136\u1166
p2895
sI60426
V\u1136\u1166\u11ab
p2896
sI60427
V\u1136\u1166\u11af
p2897
sI60428
V\u1136\u1166\u11b8
p2898
sI60429
V\u1136\u1166\u11ba
p2899
sI60430
V\u1136\u1167
p2900
sI60431
V\u1136\u1167\u11a8
p2901
sI60432
V\u1136\u1167\u11ab
p2902
sI60433
V\u1136\u1167\u11af
p2903
sI60434
V\u1136\u1167\u11ba
p2904
sI60435
V\u1136\u1167\u11f0
p2905
sI60436
V\u1136\u1168
p2906
sI60437
V\u1136\u1168\u11ab
p2907
sI60438
V\u1136\u1169
p2908
sI60439
V\u1136\u1169\u11a8
p2909
sI60440
V\u1136\u1169\u11ab
p2910
sI60441
V\u1136\u1169\u11af
p2911
sI60442
V\u1136\u1169\u11b7
p2912
sI60443
V\u1136\u1169\u11b8
p2913
sI60444
V\u1136\u1169\u11ba
p2914
sI60445
V\u1136\u1169\u11bc
p2915
sI60446
V\u1136\u1169\u11bd
p2916
sI60447
V\u1136\u1169\u11be
p2917
sI60448
V\u1136\u116a
p2918
sI60449
V\u1136\u116a\u11a8
p2919
sI60450
V\u1136\u116c
p2920
sI60451
V\u1136\u116c\u11a8
p2921
sI60452
V\u1136\u116c\u11ab
p2922
sI60453
V\u1136\u116c\u11af
p2923
sI60454
V\u1136\u116c\u11b7
p2924
sI60455
V\u1136\u116d
p2925
sI60456
V\u1136\u116d\u11a8
p2926
sI60457
V\u1136\u116d\u11ae
p2927
sI60458
V\u1136\u116d\u11b7
p2928
sI60459
V\u1136\u116d\u11ba
p2929
sI60460
V\u1136\u116d\u11bc
p2930
sI60461
V\u1136\u116e
p2931
sI60462
V\u1136\u116e\u11a8
p2932
sI60463
V\u1136\u116e\u11ab
p2933
sI60464
V\u1136\u116e\u11af
p2934
sI60465
V\u1136\u116e\u11b7
p2935
sI60466
V\u1136\u116e\u11b8
p2936
sI60467
V\u1136\u116e\u11bc
p2937
sI60468
V\u1136\u116f
p2938
sI60469
V\u1136\u1170
p2939
sI60470
V\u1136\u1171
p2940
sI60471
V\u1136\u1171\u11a8
p2941
sI60472
V\u1136\u1172
p2942
sI60473
V\u1136\u1172\u11a8
p2943
sI60474
V\u1136\u1172\u11af
p2944
sI60475
V\u1136\u1172\u11b7
p2945
sI60476
V\u1136\u1173
p2946
sI60477
V\u1136\u1173\u11a8
p2947
sI60478
V\u1136\u1173\u11ab
p2948
sI60479
V\u1136\u1173\u11af
p2949
sI60480
V\u1136\u1173\u11b7
p2950
sI60481
V\u1136\u1173\u11ba
p2951
sI60482
V\u1136\u1173\u11bc
p2952
sI60483
V\u1136\u1174
p2953
sI60484
V\u1136\u1174\u11af
p2954
sI60485
V\u1136\u1175
p2955
sI60486
V\u1136\u1175\u11a8
p2956
sI60487
V\u1136\u1175\u11ab
p2957
sI60488
V\u1136\u1175\u11af
p2958
sI60489
V\u1136\u1175\u11d9
p2959
sI60490
V\u1136\u1175\u11b7
p2960
sI60491
V\u1136\u1175\u11b8
p2961
sI60492
V\u1136\u1175\u11ba
p2962
sI60493
V\u1136\u1175\ud7f2
p2963
sI60494
V\u1136\u1175\u11bc
p2964
sI60495
V\u1136\u1175\u11f0
p2965
sI60496
V\u1136\u1175\u11c2
p2966
sI60497
V\u1136\u119e
p2967
sI60498
V\u1136\u119e\u11a8
p2968
sI60499
V\u1136\u119e\u11ab
p2969
sI60500
V\u1136\u119e\u11af
p2970
sI60501
V\u1136\u119e\u11b7
p2971
sI60502
V\u1136\u119e\u11b8
p2972
sI60503
V\u1136\u119e\u11ba
p2973
sI60504
V\u1136\u119e\u11bc
p2974
sI60505
V\u1136\u11a1
p2975
sI60506
V\u1136\u11a1\u11a8
p2976
sI60507
V\u1136\u11a1\u11af
p2977
sI60508
V\u1136\u11a1\u11bc
p2978
sI60509
V\u1136\u11a1\u11f0
p2979
sI60510
V\u1137\u1169
p2980
sI60511
V\u1137\u1175
p2981
sI60512
V\u1137\u119e
p2982
sI60513
V\u1137\u119e\u11af
p2983
sI60514
V\u1137\u119e\u11b8
p2984
sI60515
V\u1138\u1161
p2985
sI60516
V\u1138\u1161\u11bc
p2986
sI60517
V\u1138\u1165
p2987
sI60518
V\u1138\u1165\u11ab
p2988
sI60519
V\u1138\u1165\u11af
p2989
sI60520
V\u1138\u1167
p2990
sI60521
V\u1138\u1169
p2991
sI60522
V\u1138\u1169\u11ab
p2992
sI60523
V\u1138\u1169\u11ba
p2993
sI60524
V\u1138\u1169\u11bc
p2994
sI60525
V\u1138\u1169\u11f0
p2995
sI60526
V\u1138\u116a
p2996
sI60527
V\u1138\u116b
p2997
sI60528
V\u1138\u116c
p2998
sI60529
V\u1138\u116c\u11bc
p2999
sI60530
V\u1138\u116c\u11f0
p3000
sI60531
V\u1138\u116e
p3001
sI60532
V\u1138\u116f
p3002
sI60533
V\u1138\u1173
p3003
sI60534
V\u1138\u1173\u11ab
p3004
sI60535
V\u1138\u1174
p3005
sI60536
V\u1138\u1175
p3006
sI60537
V\u1138\u119e
p3007
sI60538
V\u1139\u1161
p3008
sI60539
V\u1139\u1161\u11af
p3009
sI60540
V\u1139\u1165
p3010
sI60541
V\u1139\u1165\u11af
p3011
sI60542
V\u1139\u1166
p3012
sI60543
V\u1139\u1169
p3013
sI60544
V\u1139\u1169\u11b8
p3014
sI60545
V\u1139\u116e
p3015
sI60546
V\u1139\u116e\u11a8
p3016
sI60547
V\u1139\u1171
p3017
sI60548
V\u1139\u1173
p3018
sI60549
V\u1139\u1173\u11af
p3019
sI60550
V\u1139\u1173\u11b7
p3020
sI60551
V\u1139\u1173\u11ba
p3021
sI60552
V\u1139\u1175
p3022
sI60553
V\u1139\u1175\u11bf
p3023
sI60554
V\u1139\u119e
p3024
sI60555
V\u1139\u119e\u11af
p3025
sI60556
V\u1139\u119e\u11b7
p3026
sI60557
V\u113a\u1167
p3027
sI60558
V\u113a\u1167\u11ab
p3028
sI60559
V\u113a\u116e
p3029
sI60560
V\u113a\u116e\u11ab
p3030
sI60561
V\u113a\u1175
p3031
sI60562
V\u113a\u119e
p3032
sI60563
V\u113a\u119e\u11af
p3033
sI60564
V\u113b\u1165
p3034
sI60565
V\u113b\u1165\u11af
p3035
sI60566
V\u113b\u1167
p3036
sI60567
V\u113b\u1173
p3037
sI60568
V\u113b\u1173\u11af
p3038
sI60569
V\u113c\u1161
p3039
sI60570
V\u113c\u1161\u11ab
p3040
sI60571
V\u113c\u1161\u11f0
p3041
sI60572
V\u113c\u1162
p3042
sI60573
V\u113c\u1163
p3043
sI60574
V\u113c\u1163\u11b7
p3044
sI60575
V\u113c\u1163\u11e2
p3045
sI60576
V\u113c\u1163\u11f0
p3046
sI60577
V\u113c\u1165
p3047
sI60578
V\u113c\u1165\u11ab
p3048
sI60579
V\u113c\u1167
p3049
sI60580
V\u113c\u1167\u11ab
p3050
sI60581
V\u113c\u1168
p3051
sI60582
V\u113c\u116e
p3052
sI60583
V\u113c\u116e\u11ab
p3053
sI60584
V\u113c\u116e\u11bc
p3054
sI60585
V\u113c\u1171
p3055
sI60586
V\u113c\u1172
p3056
sI60587
V\u113c\u1172\u11ab
p3057
sI60588
V\u113c\u1191
p3058
sI60589
V\u113c\u1191\u11ab
p3059
sI60590
V\u113c\u1173
p3060
sI60591
V\u113c\u1173\u11ab
p3061
sI60592
V\u113c\u1173\u11eb
p3062
sI60593
V\u113c\u1175
p3063
sI60594
V\u113c\u1175\u11bc
p3064
sI60595
V\u113d\u1163
p3065
sI60596
V\u113d\u1163\u11bc
p3066
sI60597
V\u113d\u1163\u11f0
p3067
sI60598
V\u113d\u1167
p3068
sI60599
V\u113d\u1167\u11ab
p3069
sI60600
V\u113d\u116e
p3070
sI60601
V\u113d\u1171
p3071
sI60602
V\u113d\u1172
p3072
sI60603
V\u113d\u1172\u11ab
p3073
sI60604
V\u113d\u1172\u11f0
p3074
sI60605
V\u113d\u1191
p3075
sI60606
V\u113d\u1191\u11ab
p3076
sI60607
V\u113d\u1194
p3077
sI60608
V\u113d\u1173
p3078
sI60609
V\u113d\u1173\u11eb
p3079
sI60610
V\u113d\u1175
p3080
sI60611
V\u113d\u1175\u11ab
p3081
sI60612
V\u113d\u1175\u11eb
p3082
sI60613
V\u113d\u1175\u11f9
p3083
sI60614
V\u113e\u1161
p3084
sI60615
V\u113e\u1161\u11ab
p3085
sI60616
V\u113e\u1161\u11ae
p3086
sI60617
V\u113e\u1162
p3087
sI60618
V\u113e\u1163
p3088
sI60619
V\u113e\u1163\u11b7
p3089
sI60620
V\u113e\u1163\u11e2
p3090
sI60621
V\u113e\u1167
p3091
sI60622
V\u113e\u1167\u11ab
p3092
sI60623
V\u113e\u1169
p3093
sI60624
V\u113e\u116a
p3094
sI60625
V\u113e\u116b
p3095
sI60626
V\u113e\u116e
p3096
sI60627
V\u113e\u116e\u11a8
p3097
sI60628
V\u113e\u116e\u11bc
p3098
sI60629
V\u113e\u1171
p3099
sI60630
V\u113e\u1172
p3100
sI60631
V\u113e\u1172\u11ab
p3101
sI60632
V\u113e\u1191
p3102
sI60633
V\u113e\u1191\u11ab
p3103
sI60634
V\u113e\u1173
p3104
sI60635
V\u113e\u1173\u11eb
p3105
sI60636
V\u113e\u1173\u11bc
p3106
sI60637
V\u113e\u1175
p3107
sI60638
V\u113e\u1175\u11ab
p3108
sI60639
V\u113e\u1175\u11b7
p3109
sI60640
V\u113e\u1175\u11e2
p3110
sI60641
V\u113f\u1163
p3111
sI60642
V\u113f\u1163\u11f0
p3112
sI60643
V\u113f\u1167
p3113
sI60644
V\u113f\u1167\u11ab
p3114
sI60645
V\u113f\u116e
p3115
sI60646
V\u113f\u1171
p3116
sI60647
V\u113f\u1172
p3117
sI60648
V\u113f\u1172\u11a8
p3118
sI60649
V\u113f\u1172\u11ab
p3119
sI60650
V\u113f\u1172\u11f0
p3120
sI60651
V\u113f\u1173
p3121
sI60652
V\u113f\u1173\u11eb
p3122
sI60653
V\u113f\u1175
p3123
sI60654
V\u113f\u1175\u11ab
p3124
sI60655
V\u113f\u1175\u11f9
p3125
sI60656
V\u1140\u1161
p3126
sI60657
V\u1140\u1161\u11a8
p3127
sI60658
V\u1140\u1161\u11ab
p3128
sI60659
V\u1140\u1161\u11ae
p3129
sI60660
V\u1140\u1161\u11af
p3130
sI60661
V\u1140\u1161\u11b7
p3131
sI60662
V\u1140\u1161\u11dd
p3132
sI60663
V\u1140\u1161\u11b8
p3133
sI60664
V\u1140\u1161\u11ba
p3134
sI60665
V\u1140\u1161\u11bc
p3135
sI60666
V\u1140\u1161\u11f0
p3136
sI60667
V\u1140\u1162
p3137
sI60668
V\u1140\u1162\u11ab
p3138
sI60669
V\u1140\u1162\u11ba
p3139
sI60670
V\u1140\u1162\u11eb
p3140
sI60671
V\u1140\u1162\u11bc
p3141
sI60672
V\u1140\u1162\u11f0
p3142
sI60673
V\u1140\u1163
p3143
sI60674
V\u1140\u1163\u11a8
p3144
sI60675
V\u1140\u1163\u11ab
p3145
sI60676
V\u1140\u1163\u11b7
p3146
sI60677
V\u1140\u1163\u11e2
p3147
sI60678
V\u1140\u1163\u11b8
p3148
sI60679
V\u1140\u1163\u11e6
p3149
sI60680
V\u1140\u1163\u11bc
p3150
sI60681
V\u1140\u1163\u11f0
p3151
sI60682
V\u1140\u1163\u11f9
p3152
sI60683
V\u1140\u1178
p3153
sI60684
V\u1140\u1165
p3154
sI60685
V\u1140\u1165\u11a8
p3155
sI60686
V\u1140\u1165\u11ab
p3156
sI60687
V\u1140\u1165\u11af
p3157
sI60688
V\u1140\u1165\u11b7
p3158
sI60689
V\u1140\u1165\u11dd
p3159
sI60690
V\u1140\u1165\u11b8
p3160
sI60691
V\u1140\u1165\u11ba
p3161
sI60692
V\u1140\u1165\u11eb
p3162
sI60693
V\u1140\u1165\u11bc
p3163
sI60694
V\u1140\u1165\u11f0
p3164
sI60695
V\u1140\u1165\u11c2
p3165
sI60696
V\u1140\u117b
p3166
sI60697
V\u1140\u1166
p3167
sI60698
V\u1140\u1166\u11ab
p3168
sI60699
V\u1140\u1166\u11ba
p3169
sI60700
V\u1140\u1167
p3170
sI60701
V\u1140\u1167\u11a8
p3171
sI60702
V\u1140\u1167\u11ab
p3172
sI60703
V\u1140\u1167\u11af
p3173
sI60704
V\u1140\u1167\u11b3
p3174
sI60705
V\u1140\u1167\u11d9
p3175
sI60706
V\u1140\u1167\u11b7
p3176
sI60707
V\u1140\u1167\u11b8
p3177
sI60708
V\u1140\u1167\u11bc
p3178
sI60709
V\u1140\u1167\u11f0
p3179
sI60710
V\u1140\u1167\u11f9
p3180
sI60711
V\u1140\u1168
p3181
sI60712
V\u1140\u1168\u11ab
p3182
sI60713
V\u1140\u1168\u11ae
p3183
sI60714
V\u1140\u1168\u11b7
p3184
sI60715
V\u1140\u1168\u11ba
p3185
sI60716
V\u1140\u1168\u11bc
p3186
sI60717
V\u1140\u1169
p3187
sI60718
V\u1140\u1169\u11ab
p3188
sI60719
V\u1140\u1169\u11af
p3189
sI60720
V\u1140\u1169\u11d9
p3190
sI60721
V\u1140\u1169\u11b7
p3191
sI60722
V\u1140\u1169\u11b8
p3192
sI60723
V\u1140\u1169\u11eb
p3193
sI60724
V\u1140\u1169\u11bc
p3194
sI60725
V\u1140\u1169\u11f0
p3195
sI60726
V\u1140\u116a
p3196
sI60727
V\u1140\u116b
p3197
sI60728
V\u1140\u116c
p3198
sI60729
V\u1140\u116d
p3199
sI60730
V\u1140\u116d\u11a8
p3200
sI60731
V\u1140\u116d\u11b7
p3201
sI60732
V\u1140\u116d\u11e2
p3202
sI60733
V\u1140\u116d\u11ba
p3203
sI60734
V\u1140\u116d\u11bc
p3204
sI60735
V\u1140\u116d\u11f0
p3205
sI60736
V\u1140\u116d\u11c2
p3206
sI60737
V\u1140\u116e
p3207
sI60738
V\u1140\u116e\u11a8
p3208
sI60739
V\u1140\u116e\u11ab
p3209
sI60740
V\u1140\u116e\u11af
p3210
sI60741
V\u1140\u116e\u11d9
p3211
sI60742
V\u1140\u116e\u11b7
p3212
sI60743
V\u1140\u116e\u11dd
p3213
sI60744
V\u1140\u116e\u11b8
p3214
sI60745
V\u1140\u116e\u11ba
p3215
sI60746
V\u1140\u116e\u11bc
p3216
sI60747
V\u1140\u116e\u11f0
p3217
sI60748
V\u1140\u116e\u11be
p3218
sI60749
V\u1140\u116e\u11c2
p3219
sI60750
V\u1140\u1189
p3220
sI60751
V\u1140\u1189\u11ab
p3221
sI60752
V\u1140\u116f
p3222
sI60753
V\u1140\u1170
p3223
sI60754
V\u1140\ud7b5
p3224
sI60755
V\u1140\u118c
p3225
sI60756
V\u1140\u1171
p3226
sI60757
V\u1140\u1171\u11ab
p3227
sI60758
V\u1140\u1172
p3228
sI60759
V\u1140\u1172\u11a8
p3229
sI60760
V\u1140\u1172\u11ab
p3230
sI60761
V\u1140\u1172\u11b7
p3231
sI60762
V\u1140\u1172\u11e2
p3232
sI60763
V\u1140\u1172\u11ba
p3233
sI60764
V\u1140\u1172\u11bc
p3234
sI60765
V\u1140\u1172\u11f0
p3235
sI60766
V\u1140\u1172\u11bd
p3236
sI60767
V\u1140\u1172\u11be
p3237
sI60768
V\u1140\u1172\u11f9
p3238
sI60769
V\u1140\u118f
p3239
sI60770
V\u1140\u118f\u11ab
p3240
sI60771
V\u1140\u1191
p3241
sI60772
V\u1140\u1191\u11ab
p3242
sI60773
V\u1140\u1191\u11af
p3243
sI60774
V\u1140\u1191\u11d9
p3244
sI60775
V\u1140\u1192
p3245
sI60776
V\u1140\u1192\u11bc
p3246
sI60777
V\u1140\u1194
p3247
sI60778
V\u1140\u1194\u11bc
p3248
sI60779
V\u1140\u1173
p3249
sI60780
V\u1140\u1173\u11a8
p3250
sI60781
V\u1140\u1173\u11ab
p3251
sI60782
V\u1140\u1173\u11af
p3252
sI60783
V\u1140\u1173\u11b1
p3253
sI60784
V\u1140\u1173\u11b3
p3254
sI60785
V\u1140\u1173\u11b6
p3255
sI60786
V\u1140\u1173\u11d9
p3256
sI60787
V\u1140\u1173\u11b7
p3257
sI60788
V\u1140\u1173\u11dd
p3258
sI60789
V\u1140\u1173\u11e0
p3259
sI60790
V\u1140\u1173\u11b8
p3260
sI60791
V\u1140\u1173\u11ba
p3261
sI60792
V\u1140\u1173\ud7f0
p3262
sI60793
V\u1140\u1173\u11eb
p3263
sI60794
V\u1140\u1173\u11f0
p3264
sI60795
V\u1140\u1173\u11be
p3265
sI60796
V\u1140\u1174
p3266
sI60797
V\u1140\u1174\u11ab
p3267
sI60798
V\u1140\u1174\u11ba
p3268
sI60799
V\u1140\u1175
p3269
sI60800
V\u1140\u1175\u11a8
p3270
sI60801
V\u1140\u1175\u11ab
p3271
sI60802
V\u1140\u1175\u11ae
p3272
sI60803
V\u1140\u1175\u11af
p3273
sI60804
V\u1140\u1175\u11b3
p3274
sI60805
V\u1140\u1175\u11d9
p3275
sI60806
V\u1140\u1175\u11b7
p3276
sI60807
V\u1140\u1175\u11b8
p3277
sI60808
V\u1140\u1175\u11e6
p3278
sI60809
V\u1140\u1175\u11ba
p3279
sI60810
V\u1140\u1175\u11eb
p3280
sI60811
V\u1140\u1175\u11bc
p3281
sI60812
V\u1140\u1175\u11f0
p3282
sI60813
V\u1140\u1175\u11f9
p3283
sI60814
V\u1140\u1198
p3284
sI60815
V\u1140\u119e
p3285
sI60816
V\u1140\u119e\u11a8
p3286
sI60817
V\u1140\u119e\u11ab
p3287
sI60818
V\u1140\u119e\u11ae
p3288
sI60819
V\u1140\u119e\u11af
p3289
sI60820
V\u1140\u119e\u11b0
p3290
sI60821
V\u1140\u119e\u11b3
p3291
sI60822
V\u1140\u119e\u11b6
p3292
sI60823
V\u1140\u119e\u11d9
p3293
sI60824
V\u1140\u119e\u11b7
p3294
sI60825
V\u1140\u119e\u11dd
p3295
sI60826
V\u1140\u119e\u11b8
p3296
sI60827
V\u1140\u119e\u11e6
p3297
sI60828
V\u1140\u119e\u11ba
p3298
sI60829
V\u1140\u119e\u11eb
p3299
sI60830
V\u1140\u119e\u11bc
p3300
sI60831
V\u1140\u119e\u11bd
p3301
sI60832
V\u1140\u11a1
p3302
sI60833
V\u1140\u11a1\u11ab
p3303
sI60834
V\u1140\u11a1\u11af
p3304
sI60835
V\u1140\u11a1\u11b8
p3305
sI60836
V\u1140\u11a1\u11ba
p3306
sI60837
V\u110b\u1161\u11c7
p3307
sI60838
V\u110b\u1161\u11c9
p3308
sI60839
V\u110b\u1161\u11cd
p3309
sI60840
V\u110b\u1161\u11d0
p3310
sI60841
V\u110b\u1161\u11d3
p3311
sI60842
V\u110b\u1161\ud7da
p3312
sI60843
V\u110b\u1161\u11d4
p3313
sI60844
V\u110b\u1161\u11d6
p3314
sI60845
V\u110b\u1161\u11d9
p3315
sI60846
V\u110b\u1161\u11dd
p3316
sI60847
V\u110b\u1161\u11e1
p3317
sI60848
V\u110b\u1161\u11e2
p3318
sI60849
V\u110b\u1161\u11e3
p3319
sI60850
V\u110b\u1161\ud7e4
p3320
sI60851
V\u110b\u1161\u11e4
p3321
sI60852
V\u110b\u1161\u11e5
p3322
sI60853
V\u110b\u1161\u11e6
p3323
sI60854
V\u110b\u1161\u11ea
p3324
sI60855
V\u110b\u1161\u11eb
p3325
sI60856
V\u110b\u1161\u11f0
p3326
sI60857
V\u110b\u1161\u11f5
p3327
sI60858
V\u110b\u1176
p3328
sI60859
V\u110b\u1176\u11af
p3329
sI60860
V\u110b\u1162\u11eb
p3330
sI60861
V\u110b\u1162\u11f0
p3331
sI60862
V\u110b\u1163\u11d9
p3332
sI60863
V\u110b\u1163\u11dc
p3333
sI60864
V\u110b\u1163\u11dd
p3334
sI60865
V\u110b\u1163\u11e2
p3335
sI60866
V\u110b\u1163\u11e6
p3336
sI60867
V\u110b\u1163\u11ea
p3337
sI60868
V\u110b\u1163\u11f1
p3338
sI60869
V\u110b\u1163\u11f0
p3339
sI60870
V\u110b\u1163\u11f5
p3340
sI60871
V\u110b\u1163\u11f9
p3341
sI60872
V\u110b\u1178
p3342
sI60873
V\u110b\u11a4
p3343
sI60874
V\u110b\u1165\u11c3
p3344
sI60875
V\u110b\u1165\u11c6
p3345
sI60876
V\u110b\u1165\u11c7
p3346
sI60877
V\u110b\u1165\u11cd
p3347
sI60878
V\u110b\u1165\u11d0
p3348
sI60879
V\u110b\u1165\u11d9
p3349
sI60880
V\u110b\u1165\u11dd
p3350
sI60881
V\u110b\u1165\u11de
p3351
sI60882
V\u110b\u1165\u11e4
p3352
sI60883
V\u110b\u1165\u11e6
p3353
sI60884
V\u110b\u1165\ud7ef
p3354
sI60885
V\u110b\u1165\u11eb
p3355
sI60886
V\u110b\u1165\u11f0
p3356
sI60887
V\u110b\u1165\ud7fa
p3357
sI60888
V\u110b\u117a
p3358
sI60889
V\u110b\u117c
p3359
sI60890
V\u110b\u117c\u11ab
p3360
sI60891
V\u110b\u117c\u11af
p3361
sI60892
V\u110b\u117c\u11b7
p3362
sI60893
V\u110b\u117c\u11b8
p3363
sI60894
V\u110b\u117c\u11b9
p3364
sI60895
V\u110b\u117c\u11ba
p3365
sI60896
V\u110b\u117c\u11bc
p3366
sI60897
V\u110b\u1166\u11c6
p3367
sI60898
V\u110b\u1166\u11eb
p3368
sI60899
V\u110b\u1166\u11f0
p3369
sI60900
V\u110b\u1167\u11c4
p3370
sI60901
V\u110b\u1167\u11fd
p3371
sI60902
V\u110b\u1167\u11c6
p3372
sI60903
V\u110b\u1167\u11c7
p3373
sI60904
V\u110b\u1167\u11c9
p3374
sI60905
V\u110b\u1167\ud7d4
p3375
sI60906
V\u110b\u1167\u11d0
p3376
sI60907
V\u110b\u1167\u11d5
p3377
sI60908
V\u110b\u1167\u11d9
p3378
sI60909
V\u110b\u1167\u11e2
p3379
sI60910
V\u110b\u1167\u11e3
p3380
sI60911
V\u110b\u1167\ud7e6
p3381
sI60912
V\u110b\u1167\u11e6
p3382
sI60913
V\u110b\u1167\u11e7
p3383
sI60914
V\u110b\u1167\u11ea
p3384
sI60915
V\u110b\u1167\ud7f1
p3385
sI60916
V\u110b\u1167\ud7f2
p3386
sI60917
V\u110b\u1167\u11eb
p3387
sI60918
V\u110b\u1167\u11ec
p3388
sI60919
V\u110b\u1167\u11ed
p3389
sI60920
V\u110b\u1167\u11f0
p3390
sI60921
V\u110b\u1167\u11f9
p3391
sI60922
V\u110b\u117d
p3392
sI60923
V\u110b\u117e
p3393
sI60924
V\u110b\u1169\u11c7
p3394
sI60925
V\u110b\u1169\ud7d5
p3395
sI60926
V\u110b\u1169\ud7d6
p3396
sI60927
V\u110b\u1169\u11cd
p3397
sI60928
V\u110b\u1169\u11d0
p3398
sI60929
V\u110b\u1169\u11d6
p3399
sI60930
V\u110b\u1169\u11d9
p3400
sI60931
V\u110b\u1169\u11dd
p3401
sI60932
V\u110b\u1169\u11e2
p3402
sI60933
V\u110b\u1169\ud7f0
p3403
sI60934
V\u110b\u1169\u11eb
p3404
sI60935
V\u110b\u1169\u11f0
p3405
sI60936
V\u110b\u1169\u11f1
p3406
sI60937
V\u110b\u116a\ud7cf
p3407
sI60938
V\u110b\u116a\ud7d4
p3408
sI60939
V\u110b\u116a\u11dd
p3409
sI60940
V\u110b\u116a\u11ea
p3410
sI60941
V\u110b\u116a\u11f0
p3411
sI60942
V\u110b\u116a\u11f9
p3412
sI60943
V\u110b\u117f
p3413
sI60944
V\u110b\u117f\u11ab
p3414
sI60945
V\u110b\u117f\u11af
p3415
sI60946
V\u110b\u1182
p3416
sI60947
V\u110b\u1182\u11af
p3417
sI60948
V\u110b\u116c\u11d0
p3418
sI60949
V\u110b\u116c\u11d9
p3419
sI60950
V\u110b\u116c\u11f0
p3420
sI60951
V\u110b\u116d\u11d9
p3421
sI60952
V\u110b\u116d\u11e2
p3422
sI60953
V\u110b\u116d\u11f0
p3423
sI60954
V\u110b\ud7b2
p3424
sI60955
V\u110b\ud7b3
p3425
sI60956
V\u110b\ud7b3\u11ab
p3426
sI60957
V\u110b\ud7b4
p3427
sI60958
V\u110b\ud7b4\u11ab
p3428
sI60959
V\u110b\u1187
p3429
sI60960
V\u110b\u1188
p3430
sI60961
V\u110b\u1188\u11af
p3431
sI60962
V\u110b\u116e\u11c9
p3432
sI60963
V\u110b\u116e\ud7d3
p3433
sI60964
V\u110b\u116e\u11cd
p3434
sI60965
V\u110b\u116e\u11d0
p3435
sI60966
V\u110b\u116e\u11d9
p3436
sI60967
V\u110b\u116e\u11dd
p3437
sI60968
V\u110b\u116e\u11e0
p3438
sI60969
V\u110b\u116e\u11e1
p3439
sI60970
V\u110b\u116e\u11e2
p3440
sI60971
V\u110b\u116e\u11e4
p3441
sI60972
V\u110b\u116e\u11ea
p3442
sI60973
V\u110b\u116e\ud7eb
p3443
sI60974
V\u110b\u116e\ud7f0
p3444
sI60975
V\u110b\u116e\u11eb
p3445
sI60976
V\u110b\u116e\ud7f3
p3446
sI60977
V\u110b\u116e\ud7f4
p3447
sI60978
V\u110b\u116e\u11f0
p3448
sI60979
V\u110b\u116e\u11f9
p3449
sI60980
V\u110b\u1189
p3450
sI60981
V\u110b\u1189\u11ab
p3451
sI60982
V\u110b\u1189\u11bc
p3452
sI60983
V\u110b\u1189\u11f0
p3453
sI60984
V\u110b\u118a
p3454
sI60985
V\u110b\u116f\u11d8
p3455
sI60986
V\u110b\u116f\u11d9
p3456
sI60987
V\u110b\u116f\u11eb
p3457
sI60988
V\u110b\u116f\u11f0
p3458
sI60989
V\u110b\u116f\u11f1
p3459
sI60990
V\u110b\u118b
p3460
sI60991
V\u110b\u118b\u11ab
p3461
sI60992
V\u110b\ud7b5
p3462
sI60993
V\u110b\u118c
p3463
sI60994
V\u110b\u1171\u11d9
p3464
sI60995
V\u110b\u1171\u11f0
p3465
sI60996
V\u110b\u1172\u11d9
p3466
sI60997
V\u110b\u1172\u11e2
p3467
sI60998
V\u110b\u1172\u11f0
p3468
sI60999
V\u110b\u1172\u11f9
p3469
sI61000
V\u110b\u118e
p3470
sI61001
V\u110b\u118e\u11ab
p3471
sI61002
V\u110b\u118e\u11b7
p3472
sI61003
V\u110b\u118f
p3473
sI61004
V\u110b\u1190
p3474
sI61005
V\u110b\u1190\u11ab
p3475
sI61006
V\u110b\u1191
p3476
sI61007
V\u110b\u1191\u11a8
p3477
sI61008
V\u110b\u1191\u11ab
p3478
sI61009
V\u110b\u1191\u11af
p3479
sI61010
V\u110b\u1191\u11d9
p3480
sI61011
V\u110b\u1191\u11f0
p3481
sI61012
V\u110b\u1191\u11f9
p3482
sI61013
V\u110b\u1192
p3483
sI61014
V\u110b\u1192\u11bc
p3484
sI61015
V\u110b\u1192\u11f0
p3485
sI61016
V\u110b\u1193
p3486
sI61017
V\u110b\u1194
p3487
sI61018
V\u110b\u1194\u11ab
p3488
sI61019
V\u110b\u1194\u11bc
p3489
sI61020
V\u110b\u1194\u11f0
p3490
sI61021
V\u110b\u1173\u11ff
p3491
sI61022
V\u110b\u1173\u11c7
p3492
sI61023
V\u110b\u1173\ud7cd
p3493
sI61024
V\u110b\u1173\u11d0
p3494
sI61025
V\u110b\u1173\ud7da
p3495
sI61026
V\u110b\u1173\u11d4
p3496
sI61027
V\u110b\u1173\u11d9
p3497
sI61028
V\u110b\u1173\u11dd
p3498
sI61029
V\u110b\u1173\u11e2
p3499
sI61030
V\u110b\u1173\u11e3
p3500
sI61031
V\u110b\u1173\ud7e6
p3501
sI61032
V\u110b\u1173\u11e4
p3502
sI61033
V\u110b\u1173\ud7f0
p3503
sI61034
V\u110b\u1173\u11eb
p3504
sI61035
V\u110b\u1173\u11f0
p3505
sI61036
V\u110b\u1173\ud7f9
p3506
sI61037
V\u110b\u1173\u11f9
p3507
sI61038
V\u110b\u1195
p3508
sI61039
V\u110b\u1196
p3509
sI61040
V\u110b\u1196\u11ab
p3510
sI61041
V\u110b\u1196\u11bc
p3511
sI61042
V\u110b\u1196\u11f0
p3512
sI61043
V\u110b\u1196\u11f9
p3513
sI61044
V\u110b\u1174\u11d9
p3514
sI61045
V\u110b\u1174\u11f9
p3515
sI61046
V\u110b\u1175\u11c7
p3516
sI61047
V\u110b\u1175\u11cd
p3517
sI61048
V\u110b\u1175\u11d0
p3518
sI61049
V\u110b\u1175\u11d9
p3519
sI61050
V\u110b\u1175\u11e2
p3520
sI61051
V\u110b\u1175\u11e5
p3521
sI61052
V\u110b\u1175\u11e6
p3522
sI61053
V\u110b\u1175\u11e7
p3523
sI61054
V\u110b\u1175\u11e9
p3524
sI61055
V\u110b\u1175\u11ea
p3525
sI61056
V\u110b\u1175\u11f0
p3526
sI61057
V\u110b\u1175\u11f9
p3527
sI61058
V\u110b\u1198
p3528
sI61059
V\u110b\u119a
p3529
sI61060
V\u110b\ud7c1
p3530
sI61061
V\u110b\u119b
p3531
sI61062
V\u110b\u119c
p3532
sI61063
V\u110b\u119c\u11ab
p3533
sI61064
V\u110b\u119e
p3534
sI61065
V\u110b\u119e\u11a8
p3535
sI61066
V\u110b\u119e\u11ab
p3536
sI61067
V\u110b\u119e\u11ae
p3537
sI61068
V\u110b\u119e\u11af
p3538
sI61069
V\u110b\u119e\u11b0
p3539
sI61070
V\u110b\u119e\u11b1
p3540
sI61071
V\u110b\u119e\u11b2
p3541
sI61072
V\u110b\u119e\u11b3
p3542
sI61073
V\u110b\u119e\u11b6
p3543
sI61074
V\u110b\u119e\u11d9
p3544
sI61075
V\u110b\u119e\u11b7
p3545
sI61076
V\u110b\u119e\u11dd
p3546
sI61077
V\u110b\u119e\u11b8
p3547
sI61078
V\u110b\u119e\u11b9
p3548
sI61079
V\u110b\u119e\u11ba
p3549
sI61080
V\u110b\u119e\u11eb
p3550
sI61081
V\u110b\u119e\u11bc
p3551
sI61082
V\u110b\u119e\u11f0
p3552
sI61083
V\u110b\u119e\u11bd
p3553
sI61084
V\u110b\u119e\u11be
p3554
sI61085
V\u110b\u119e\u11c0
p3555
sI61086
V\u110b\u119f
p3556
sI61087
V\u110b\u119f\u11ab
p3557
sI61088
V\u110b\u119f\u11af
p3558
sI61089
V\u110b\u119f\u11b2
p3559
sI61090
V\u110b\u119f\u11b7
p3560
sI61091
V\u110b\u119f\u11bc
p3561
sI61092
V\u110b\u11a1
p3562
sI61093
V\u110b\u11a1\u11a8
p3563
sI61094
V\u110b\u11a1\u11ab
p3564
sI61095
V\u110b\u11a1\u11af
p3565
sI61096
V\u110b\u11a1\u11b7
p3566
sI61097
V\u110b\u11a1\u11b8
p3567
sI61098
V\u110b\u11a1\u11ba
p3568
sI61099
V\u110b\u11a1\u11eb
p3569
sI61100
V\u110b\u11a1\u11bc
p3570
sI61101
V\u110b\u11a1\u11f0
p3571
sI61102
V\u110b\u11a2
p3572
sI61103
V\u110b\u11a2\u11af
p3573
sI61104
V\u1141\u1161
p3574
sI61105
V\u1141\u1161\u11a8
p3575
sI61106
V\u1141\u1162
p3576
sI61107
V\u1141\u1163
p3577
sI61108
V\u1141\u1163\u11ab
p3578
sI61109
V\u1141\u1165
p3579
sI61110
V\u1141\u1166
p3580
sI61111
V\u1141\u1167
p3581
sI61112
V\u1141\u1168
p3582
sI61113
V\u1141\u1168\u11ab
p3583
sI61114
V\u1141\u1169
p3584
sI61115
V\u1141\u1169\u11a8
p3585
sI61116
V\u1141\u1169\u11ab
p3586
sI61117
V\u1141\u116a
p3587
sI61118
V\u1141\u116a\u11ab
p3588
sI61119
V\u1141\u116b
p3589
sI61120
V\u1141\u116c
p3590
sI61121
V\u1141\u116d
p3591
sI61122
V\u1141\u116e
p3592
sI61123
V\u1141\u116e\u11ab
p3593
sI61124
V\u1141\u116f
p3594
sI61125
V\u1141\u1170
p3595
sI61126
V\u1141\ud7b5
p3596
sI61127
V\u1141\u118c
p3597
sI61128
V\u1141\u1171
p3598
sI61129
V\u1141\u1172
p3599
sI61130
V\u1141\u1194
p3600
sI61131
V\u1141\u1173
p3601
sI61132
V\u1141\u1174
p3602
sI61133
V\u1141\u1175
p3603
sI61134
V\u1141\u1175\u11ab
p3604
sI61135
V\u1141\u1198
p3605
sI61136
V\u1141\u119e
p3606
sI61137
V\u1141\u11a1
p3607
sI61138
V\u1142\u1161
p3608
sI61139
V\u1142\u1161\u11ab
p3609
sI61140
V\u1142\u1165
p3610
sI61141
V\u1142\u1165\u11af
p3611
sI61142
V\u1142\u1166
p3612
sI61143
V\u1142\u1166\u11ab
p3613
sI61144
V\u1142\u1169
p3614
sI61145
V\u1142\u1169\u11ab
p3615
sI61146
V\u1142\u1169\u11af
p3616
sI61147
V\u1142\u1173
p3617
sI61148
V\u1142\u1173\u11b7
p3618
sI61149
V\u1142\u1174
p3619
sI61150
V\u1142\u1175
p3620
sI61151
V\u1142\u1175\u11bc
p3621
sI61152
V\u1142\u119e
p3622
sI61153
V\u1142\u119e\u11b7
p3623
sI61154
V\ua976\u1165
p3624
sI61155
V\ua976\u1169
p3625
sI61156
V\ua976\u1175
p3626
sI61157
V\u1143\u116e
p3627
sI61158
V\u1143\u119e
p3628
sI61159
V\u1143\u11a1
p3629
sI61160
V\u1144\u1161
p3630
sI61161
V\u1144\u1161\u11ab
p3631
sI61162
V\u1144\u1161\u11af
p3632
sI61163
V\u1144\u1161\u11b7
p3633
sI61164
V\u1144\u1162
p3634
sI61165
V\u1144\u1162\u11af
p3635
sI61166
V\u1144\u1162\u11b7
p3636
sI61167
V\u1144\u1165
p3637
sI61168
V\u1144\u1165\u11af
p3638
sI61169
V\u1144\u1165\u11c0
p3639
sI61170
V\u1144\u1166
p3640
sI61171
V\u1144\u1166\u11ab
p3641
sI61172
V\u1144\u1166\u11af
p3642
sI61173
V\u1144\u1166\u11c0
p3643
sI61174
V\u1144\u1167
p3644
sI61175
V\u1144\u1168
p3645
sI61176
V\u1144\u1168\u11ab
p3646
sI61177
V\u1144\u1169
p3647
sI61178
V\u1144\u1169\u11ab
p3648
sI61179
V\u1144\u1169\u11af
p3649
sI61180
V\u1144\u1169\u11c0
p3650
sI61181
V\u1144\u116a
p3651
sI61182
V\u1144\u116a\u11b7
p3652
sI61183
V\u1144\u116d
p3653
sI61184
V\u1144\u116e
p3654
sI61185
V\u1144\u116e\u11ab
p3655
sI61186
V\u1144\u116e\u11af
p3656
sI61187
V\u1144\u116f
p3657
sI61188
V\u1144\u1170
p3658
sI61189
V\u1144\u1170\u11af
p3659
sI61190
V\u1144\u1171
p3660
sI61191
V\u1144\u1171\u11bc
p3661
sI61192
V\u1144\u1172
p3662
sI61193
V\u1144\u1173
p3663
sI61194
V\u1144\u1173\u11ab
p3664
sI61195
V\u1144\u1173\u11af
p3665
sI61196
V\u1144\u1174
p3666
sI61197
V\u1144\u1175
p3667
sI61198
V\u1144\u1175\u11a8
p3668
sI61199
V\u1144\u1175\u11ab
p3669
sI61200
V\u1144\u1175\u11af
p3670
sI61201
V\u1144\u1175\u11bc
p3671
sI61202
V\u1144\u1175\u11bf
p3672
sI61203
V\u1144\u119e
p3673
sI61204
V\u1144\u11a1
p3674
sI61205
V\u1145\u1161
p3675
sI61206
V\u1145\u1161\u11ab
p3676
sI61207
V\u1145\u1161\u11bc
p3677
sI61208
V\u1145\u1176
p3678
sI61209
V\u1145\u1162
p3679
sI61210
V\u1145\u1165
p3680
sI61211
V\u1145\u1165\u11ab
p3681
sI61212
V\u1145\u1165\u11af
p3682
sI61213
V\u1145\u1165\u11b7
p3683
sI61214
V\u1145\u1165\u11bc
p3684
sI61215
V\u1145\u117b
p3685
sI61216
V\u1145\u1166
p3686
sI61217
V\u1145\u1167
p3687
sI61218
V\u1145\u1168
p3688
sI61219
V\u1145\u1168\u11ab
p3689
sI61220
V\u1145\u1169
p3690
sI61221
V\u1145\u1169\u11ab
p3691
sI61222
V\u1145\u116e
p3692
sI61223
V\u1145\u116e\u11ab
p3693
sI61224
V\u1145\u1189
p3694
sI61225
V\u1145\u1189\u11ab
p3695
sI61226
V\u1145\u1189\u11bc
p3696
sI61227
V\u1145\u118a
p3697
sI61228
V\u1145\u116f
p3698
sI61229
V\u1145\u1170
p3699
sI61230
V\u1145\u1172
p3700
sI61231
V\u1145\u118e
p3701
sI61232
V\u1145\u118e\u11ab
p3702
sI61233
V\u1145\u1191
p3703
sI61234
V\u1145\u1192
p3704
sI61235
V\u1145\u1194
p3705
sI61236
V\u1145\u1173
p3706
sI61237
V\u1145\u1173\u11ab
p3707
sI61238
V\u1145\u1174
p3708
sI61239
V\u1145\u1174\u11ab
p3709
sI61240
V\u1145\u1175
p3710
sI61241
V\u1145\u1175\u11af
p3711
sI61242
V\u1145\u119e
p3712
sI61243
V\u1145\u119e\u11af
p3713
sI61244
V\u1146\u1161
p3714
sI61245
V\u1146\u1162
p3715
sI61246
V\u1146\u1163
p3716
sI61247
V\u1146\u1165
p3717
sI61248
V\u1146\u1166
p3718
sI61249
V\u1146\u1167
p3719
sI61250
V\u1146\u1168
p3720
sI61251
V\u1146\u1169
p3721
sI61252
V\u1146\u116a
p3722
sI61253
V\u1146\u116b
p3723
sI61254
V\u1146\u116c
p3724
sI61255
V\u1146\u116d
p3725
sI61256
V\u1146\u116e
p3726
sI61257
V\u1146\u116f
p3727
sI61258
V\u1146\u1170
p3728
sI61259
V\u1146\ud7b5
p3729
sI61260
V\u1146\u118c
p3730
sI61261
V\u1146\u1171
p3731
sI61262
V\u1146\u1172
p3732
sI61263
V\u1146\u1194
p3733
sI61264
V\u1146\u1173
p3734
sI61265
V\u1146\u1174
p3735
sI61266
V\u1146\u1175
p3736
sI61267
V\u1146\u1198
p3737
sI61268
V\u1146\u119e
p3738
sI61269
V\u1146\u11a1
p3739
sI61270
V\u1147\u1163
p3740
sI61271
V\u1147\u1163\u11ab
p3741
sI61272
V\u1147\u1167
p3742
sI61273
V\u1147\u1167\u11ab
p3743
sI61274
V\u1147\u1167\u11ba
p3744
sI61275
V\u1147\u1168
p3745
sI61276
V\u1147\u1168\u11ba
p3746
sI61277
V\u1147\u116d
p3747
sI61278
V\u1147\u116d\u11ab
p3748
sI61279
V\u1147\u116d\u11b7
p3749
sI61280
V\u1147\u116d\u11e2
p3750
sI61281
V\u1147\u116d\u11ba
p3751
sI61282
V\u1147\u116e
p3752
sI61283
V\u1147\u116f
p3753
sI61284
V\u1147\u1172
p3754
sI61285
V\u1147\u1172\u11ab
p3755
sI61286
V\u1147\u1172\u11b7
p3756
sI61287
V\u1147\u118e
p3757
sI61288
V\u1147\u118e\u11ab
p3758
sI61289
V\u1147\u1175
p3759
sI61290
V\u1147\u1175\u11ab
p3760
sI61291
V\u1148\u1161
p3761
sI61292
V\u1148\u1161\u11ab
p3762
sI61293
V\u1148\u1161\u11bc
p3763
sI61294
V\u1148\u1176
p3764
sI61295
V\u1148\u1162
p3765
sI61296
V\u1148\u1165
p3766
sI61297
V\u1148\u1165\u11ab
p3767
sI61298
V\u1148\u1165\u11b7
p3768
sI61299
V\u1148\u1165\u11bc
p3769
sI61300
V\u1148\u117b
p3770
sI61301
V\u1148\u1169
p3771
sI61302
V\u1148\u116d
p3772
sI61303
V\u1148\u116e
p3773
sI61304
V\u1148\u116e\u11ab
p3774
sI61305
V\u1148\u116e\u11bc
p3775
sI61306
V\u1148\u1189
p3776
sI61307
V\u1148\u1189\u11ab
p3777
sI61308
V\u1148\u116f
p3778
sI61309
V\u1148\u1170
p3779
sI61310
V\u1148\u1171
p3780
sI61311
V\u1148\u1172
p3781
sI61312
V\u1148\u1194
p3782
sI61313
V\u1148\u1173
p3783
sI61314
V\u1148\u1175
p3784
sI61315
V\u1149\u1161
p3785
sI61316
V\u1149\u1161\u11ab
p3786
sI61317
V\u1149\u1161\u11bc
p3787
sI61318
V\u1149\u1162
p3788
sI61319
V\u1149\u1165
p3789
sI61320
V\u1149\u1165\u11ab
p3790
sI61321
V\u1149\u1165\u11bc
p3791
sI61322
V\u1149\u116e
p3792
sI61323
V\u1149\u116e\u11ab
p3793
sI61324
V\u1149\u116e\u11bc
p3794
sI61325
V\u1149\u1189
p3795
sI61326
V\u1149\u1189\u11ab
p3796
sI61327
V\u1149\u116f
p3797
sI61328
V\u1149\u1170
p3798
sI61329
V\u1149\u1172
p3799
sI61330
V\u1149\u118e
p3800
sI61331
V\u1149\u118e\u11ab
p3801
sI61332
V\u1149\u1194
p3802
sI61333
V\u1149\u1173
p3803
sI61334
V\u114a\u1173
p3804
sI61335
V\u114b\u1161
p3805
sI61336
V\u114b\u1161\u11a8
p3806
sI61337
V\u114b\u1161\u11ab
p3807
sI61338
V\u114b\u1161\u11af
p3808
sI61339
V\u114b\u1161\u11d8
p3809
sI61340
V\u114b\u1161\u11bf
p3810
sI61341
V\u114b\u1162
p3811
sI61342
V\u114b\u1162\u11ab
p3812
sI61343
V\u114b\u1162\u11bf
p3813
sI61344
V\u114b\u1165
p3814
sI61345
V\u114b\u1165\u11ab
p3815
sI61346
V\u114b\u1165\u11af
p3816
sI61347
V\u114b\u1165\u11b7
p3817
sI61348
V\u114b\u1165\u11bc
p3818
sI61349
V\u114b\u1166
p3819
sI61350
V\u114b\u1166\u11a8
p3820
sI61351
V\u114b\u1166\u11ab
p3821
sI61352
V\u114b\u1166\u11af
p3822
sI61353
V\u114b\u1166\u11bf
p3823
sI61354
V\u114b\u1169
p3824
sI61355
V\u114b\u1169\u11ab
p3825
sI61356
V\u114b\u1169\u11af
p3826
sI61357
V\u114b\u1169\u11b1
p3827
sI61358
V\u114b\u1169\u11d8
p3828
sI61359
V\u114b\u1169\u11b7
p3829
sI61360
V\u114b\u1169\u11bf
p3830
sI61361
V\u114b\u116a
p3831
sI61362
V\u114b\u116b
p3832
sI61363
V\u114b\u116b\u11ab
p3833
sI61364
V\u114b\u116e
p3834
sI61365
V\u114b\u116e\u11ab
p3835
sI61366
V\u114b\u116e\u11af
p3836
sI61367
V\u114b\u116e\u11bf
p3837
sI61368
V\u114b\u116e\u11c0
p3838
sI61369
V\u114b\u1189
p3839
sI61370
V\u114b\u1189\u11ab
p3840
sI61371
V\u114b\u116f
p3841
sI61372
V\u114b\u116f\u11ab
p3842
sI61373
V\u114b\u1170
p3843
sI61374
V\u114b\u1170\u11ab
p3844
sI61375
V\u114b\u1171
p3845
sI61376
V\u114b\u1171\u11a8
p3846
sI61377
V\u114b\u1171\u11ab
p3847
sI61378
V\u114b\u1171\u11af
p3848
sI61379
V\u114b\u1172
p3849
sI61380
V\u114b\u1172\u11b7
p3850
sI61381
V\u114b\u1173
p3851
sI61382
V\u114b\u1173\u11af
p3852
sI61383
V\u114b\u1175
p3853
sI61384
V\u114b\u1175\u11ab
p3854
sI61385
V\u114b\u1175\u11af
p3855
sI61386
V\u114b\u1175\u11bc
p3856
sI61387
V\u114b\u1175\u11bf
p3857
sI61388
V\u114b\u1175\u11c0
p3858
sI61389
V\u114b\u1175\u11c1
p3859
sI61390
V\u114b\u119e
p3860
sI61391
V\u114b\u11a1
p3861
sI61392
V\ua977\u1169
p3862
sI61393
V\ua977\u116e
p3863
sI61394
V\u114c\u1161
p3864
sI61395
V\u114c\u1161\u11a8
p3865
sI61396
V\u114c\u1161\u11ab
p3866
sI61397
V\u114c\u1161\u11af
p3867
sI61398
V\u114c\u1161\u11d9
p3868
sI61399
V\u114c\u1161\u11b7
p3869
sI61400
V\u114c\u1161\u11b8
p3870
sI61401
V\u114c\u1161\u11eb
p3871
sI61402
V\u114c\u1161\u11bc
p3872
sI61403
V\u114c\u1161\u11f0
p3873
sI61404
V\u114c\u1161\u11f9
p3874
sI61405
V\u114c\u1162
p3875
sI61406
V\u114c\u1162\u11ba
p3876
sI61407
V\u114c\u1162\u11bc
p3877
sI61408
V\u114c\u1163
p3878
sI61409
V\u114c\u1163\u11a8
p3879
sI61410
V\u114c\u1163\u11ab
p3880
sI61411
V\u114c\u1163\u11bc
p3881
sI61412
V\u114c\u1163\u11f0
p3882
sI61413
V\u114c\u1164
p3883
sI61414
V\u114c\u1164\u11ba
p3884
sI61415
V\u114c\u1165
p3885
sI61416
V\u114c\u1165\u11a8
p3886
sI61417
V\u114c\u1165\u11ab
p3887
sI61418
V\u114c\u1165\u11af
p3888
sI61419
V\u114c\u1165\u11d9
p3889
sI61420
V\u114c\u1165\u11b7
p3890
sI61421
V\u114c\u1165\u11b8
p3891
sI61422
V\u114c\u1165\u11ba
p3892
sI61423
V\u114c\u1165\u11eb
p3893
sI61424
V\u114c\u1165\u11bc
p3894
sI61425
V\u114c\u1165\u11f0
p3895
sI61426
V\u114c\u1166
p3896
sI61427
V\u114c\u1166\u11ab
p3897
sI61428
V\u114c\u1166\u11ba
p3898
sI61429
V\u114c\u1166\u11eb
p3899
sI61430
V\u114c\u1166\u11bc
p3900
sI61431
V\u114c\u1166\u11f0
p3901
sI61432
V\u114c\u1167
p3902
sI61433
V\u114c\u1167\u11a8
p3903
sI61434
V\u114c\u1167\u11ab
p3904
sI61435
V\u114c\u1167\u11af
p3905
sI61436
V\u114c\u1167\u11b7
p3906
sI61437
V\u114c\u1167\u11e2
p3907
sI61438
V\u114c\u1167\u11b8
p3908
sI61439
V\u114c\u1167\u11ba
p3909
sI61696
V\u114c\u1167\u11bc
p3910
sI61697
V\u114c\u1167\u11f0
p3911
sI61698
V\u114c\u1167\u11c1
p3912
sI61699
V\u114c\u1167\u11f4
p3913
sI61700
V\u114c\u1168
p3914
sI61701
V\u114c\u1168\u11ba
p3915
sI61702
V\u114c\u1168\u11bc
p3916
sI61703
V\u114c\u1169
p3917
sI61704
V\u114c\u1169\u11a8
p3918
sI61705
V\u114c\u1169\u11ab
p3919
sI61706
V\u114c\u1169\u11af
p3920
sI61707
V\u114c\u1169\u11b3
p3921
sI61708
V\u114c\u1169\u11d9
p3922
sI61709
V\u114c\u1169\u11b7
p3923
sI61710
V\u114c\u1169\u11e2
p3924
sI61711
V\u114c\u1169\u11ba
p3925
sI61712
V\u114c\u1169\u11bc
p3926
sI61713
V\u114c\u1169\u11f0
p3927
sI61714
V\u114c\u116a
p3928
sI61715
V\u114c\u116a\u11a8
p3929
sI61716
V\u114c\u116a\u11ab
p3930
sI61717
V\u114c\u116a\u11af
p3931
sI61718
V\u114c\u116a\u11d9
p3932
sI61719
V\u114c\u116a\u11b7
p3933
sI61720
V\u114c\u116a\u11dd
p3934
sI61721
V\u114c\u116a\u11bc
p3935
sI61722
V\u114c\u116a\u11f0
p3936
sI61723
V\u114c\u116b
p3937
sI61724
V\u114c\u116b\u11bc
p3938
sI61725
V\u114c\u116c
p3939
sI61726
V\u114c\u116c\u11ab
p3940
sI61727
V\u114c\u116c\u11bc
p3941
sI61728
V\u114c\u116c\u11f0
p3942
sI61729
V\u114c\u116d
p3943
sI61730
V\u114c\u116d\u11b7
p3944
sI61731
V\u114c\u116d\u11e2
p3945
sI61732
V\u114c\u116d\u11f0
p3946
sI61733
V\u114c\u1184
p3947
sI61734
V\u114c\u1185
p3948
sI61735
V\u114c\u1185\u11bc
p3949
sI61736
V\u114c\u116e
p3950
sI61737
V\u114c\u116e\u11a8
p3951
sI61738
V\u114c\u116e\u11ab
p3952
sI61739
V\u114c\u116e\u11af
p3953
sI61740
V\u114c\u116e\u11d9
p3954
sI61741
V\u114c\u116e\u11b7
p3955
sI61742
V\u114c\u116e\u11e2
p3956
sI61743
V\u114c\u116e\u11bc
p3957
sI61744
V\u114c\u116f
p3958
sI61745
V\u114c\u116f\u11ab
p3959
sI61746
V\u114c\u116f\u11af
p3960
sI61747
V\u114c\u116f\u11d9
p3961
sI61748
V\u114c\u116f\u11bc
p3962
sI61749
V\u114c\u116f\u11f0
p3963
sI61750
V\u114c\u1170
p3964
sI61751
V\u114c\u1171
p3965
sI61752
V\u114c\u1171\u11af
p3966
sI61753
V\u114c\u1171\u11d9
p3967
sI61754
V\u114c\u1171\u11bc
p3968
sI61755
V\u114c\u1171\u11f0
p3969
sI61756
V\u114c\u1172
p3970
sI61757
V\u114c\u1172\u11a8
p3971
sI61758
V\u114c\u1172\u11ab
p3972
sI61759
V\u114c\u1172\u11af
p3973
sI61760
V\u114c\u1172\u11d9
p3974
sI61761
V\u114c\u1172\u11b7
p3975
sI61762
V\u114c\u1172\u11e2
p3976
sI61763
V\u114c\u1191
p3977
sI61764
V\u114c\u1191\u11a8
p3978
sI61765
V\u114c\u1191\u11ab
p3979
sI61766
V\u114c\u1191\u11f0
p3980
sI61767
V\u114c\u1191\u11f9
p3981
sI61768
V\u114c\u1194
p3982
sI61769
V\u114c\u1173
p3983
sI61770
V\u114c\u1173\u11a8
p3984
sI61771
V\u114c\u1173\u11ab
p3985
sI61772
V\u114c\u1173\u11af
p3986
sI61773
V\u114c\u1173\u11d9
p3987
sI61774
V\u114c\u1173\u11b7
p3988
sI61775
V\u114c\u1173\u11b8
p3989
sI61776
V\u114c\u1173\u11bc
p3990
sI61777
V\u114c\u1173\u11f0
p3991
sI61778
V\u114c\u1174
p3992
sI61779
V\u114c\u1174\u11bc
p3993
sI61780
V\u114c\u1175
p3994
sI61781
V\u114c\u1175\u11ab
p3995
sI61782
V\u114c\u1175\u11ae
p3996
sI61783
V\u114c\u1175\u11af
p3997
sI61784
V\u114c\u1175\u11ba
p3998
sI61785
V\u114c\u1175\u11eb
p3999
sI61786
V\u114c\u1175\u11bc
p4000
sI61787
V\u114c\u1175\u11f0
p4001
sI61788
V\u114c\u119e
p4002
sI61789
V\u114c\u119e\u11a8
p4003
sI61790
V\u114c\u119e\u11ab
p4004
sI61791
V\u114c\u119e\u11ae
p4005
sI61792
V\u114c\u119e\u11af
p4006
sI61793
V\u114c\u119e\u11ba
p4007
sI61794
V\u114c\u11a1
p4008
sI61795
V\u114c\u11a1\u11a8
p4009
sI61796
V\u110c\u1161\u11c7
p4010
sI61797
V\u110c\u1161\u11cd
p4011
sI61798
V\u110c\u1161\u11d0
p4012
sI61799
V\u110c\u1161\u11d9
p4013
sI61800
V\u110c\u1161\u11da
p4014
sI61801
V\u110c\u1161\u11dd
p4015
sI61802
V\u110c\u1161\u11e2
p4016
sI61803
V\u110c\u1161\ud7e6
p4017
sI61804
V\u110c\u1161\u11e6
p4018
sI61805
V\u110c\u1161\u11eb
p4019
sI61806
V\u110c\u1161\u11f0
p4020
sI61807
V\u110c\u1161\u11ec
p4021
sI61808
V\u110c\u1161\u11f1
p4022
sI61809
V\u110c\u1161\u11f9
p4023
sI61810
V\u110c\u1176
p4024
sI61811
V\u110c\u1162\u11f0
p4025
sI61812
V\u110c\u1163\u11c7
p4026
sI61813
V\u110c\u1163\u11cd
p4027
sI61814
V\u110c\u1163\u11d0
p4028
sI61815
V\u110c\u1163\u11e2
p4029
sI61816
V\u110c\u1163\u11eb
p4030
sI61817
V\u110c\u1163\u11f1
p4031
sI61818
V\u110c\u1163\u11f0
p4032
sI61819
V\u110c\u1163\u11f1
p4033
sI61820
V\u110c\u1178
p4034
sI61821
V\u110c\u11a4
p4035
sI61822
V\u110c\u11a4\u11af
p4036
sI61823
V\u110c\u1165\u11fe
p4037
sI61824
V\u110c\u1165\u11cd
p4038
sI61825
V\u110c\u1165\u11d0
p4039
sI61826
V\u110c\u1165\u11d9
p4040
sI61827
V\u110c\u1165\u11dd
p4041
sI61828
V\u110c\u1165\u11e4
p4042
sI61829
V\u110c\u1165\ud7f2
p4043
sI61830
V\u110c\u1165\u11eb
p4044
sI61831
V\u110c\u1165\u11f0
p4045
sI61832
V\u110c\u1165\ud7f6
p4046
sI61833
V\u110c\u1165\u11f9
p4047
sI61834
V\u110c\u117b
p4048
sI61835
V\u110c\u117c
p4049
sI61836
V\u110c\u117c\u11a8
p4050
sI61837
V\u110c\u117c\u11ab
p4051
sI61838
V\u110c\u117c\u11bc
p4052
sI61839
V\u110c\u117c\u11f9
p4053
sI61840
V\u110c\u1167\u11c7
p4054
sI61841
V\u110c\u1167\u11ca
p4055
sI61842
V\u110c\u1167\ud7cd
p4056
sI61843
V\u110c\u1167\ud7ce
p4057
sI61844
V\u110c\u1167\ud7d2
p4058
sI61845
V\u110c\u1167\u11d0
p4059
sI61846
V\u110c\u1167\u11d9
p4060
sI61847
V\u110c\u1167\u11e2
p4061
sI61848
V\u110c\u1167\u11eb
p4062
sI61849
V\u110c\u1167\u11f0
p4063
sI61850
V\u110c\u1167\u11f9
p4064
sI61851
V\u110c\u11a5
p4065
sI61852
V\u110c\u11a5\u11bc
p4066
sI61853
V\u110c\u117d
p4067
sI61854
V\u110c\u117e
p4068
sI61855
V\u110c\u1169\u11c7
p4069
sI61856
V\u110c\u1169\u11d9
p4070
sI61857
V\u110c\u1169\u11dd
p4071
sI61858
V\u110c\u1169\u11e2
p4072
sI61859
V\u110c\u1169\u11eb
p4073
sI61860
V\u110c\u1169\u11f0
p4074
sI61861
V\u110c\u116a\u11d9
p4075
sI61862
V\u110c\u116a\u11e2
p4076
sI61863
V\u110c\u116a\u11f0
p4077
sI61864
V\u110c\u116d\u11d9
p4078
sI61865
V\u110c\u116d\u11e2
p4079
sI61866
V\u110c\u116d\u11e6
p4080
sI61867
V\u110c\u116d\u11f1
p4081
sI61868
V\u110c\u116d\u11f0
p4082
sI61869
V\u110c\u116d\u11f1
p4083
sI61870
V\u110c\u1187
p4084
sI61871
V\u110c\u1188
p4085
sI61872
V\u110c\u1188\u11af
p4086
sI61873
V\u110c\u1188\u11d9
p4087
sI61874
V\u110c\u116e\u11c7
p4088
sI61875
V\u110c\u116e\u11cd
p4089
sI61876
V\u110c\u116e\u11d9
p4090
sI61877
V\u110c\u116e\u11dd
p4091
sI61878
V\u110c\u116e\u11e2
p4092
sI61879
V\u110c\u116e\u11eb
p4093
sI61880
V\u110c\u116e\u11f0
p4094
sI61881
V\u110c\u116e\u11f9
p4095
sI61882
V\u110c\u1189
p4096
sI61883
V\u110c\u1189\u11bc
p4097
sI61884
V\u110c\u118a
p4098
sI61885
V\u110c\ud7b5
p4099
sI61886
V\u110c\ud7b5\u11ab
p4100
sI61887
V\u110c\ud7b5\u11af
p4101
sI61888
V\u110c\ud7b5\u11d9
p4102
sI61889
V\u110c\u118c
p4103
sI61890
V\u110c\u1172\u11d9
p4104
sI61891
V\u110c\u1172\u11e2
p4105
sI61892
V\u110c\u1172\u11f0
p4106
sI61893
V\u110c\u1172\u11ec
p4107
sI61894
V\u110c\u1172\u11f9
p4108
sI61895
V\u110c\u118e
p4109
sI61896
V\u110c\u118e\u11ab
p4110
sI61897
V\u110c\u118f
p4111
sI61898
V\u110c\u118f\u11ab
p4112
sI61899
V\u110c\u118f\u11af
p4113
sI61900
V\u110c\u1190
p4114
sI61901
V\u110c\u1191
p4115
sI61902
V\u110c\u1191\u11ab
p4116
sI61903
V\u110c\u1191\u11af
p4117
sI61904
V\u110c\u1191\u11d9
p4118
sI61905
V\u110c\u1191\u11f9
p4119
sI61906
V\u110c\u1192
p4120
sI61907
V\u110c\u1192\u11ab
p4121
sI61908
V\u110c\u1192\u11b8
p4122
sI61909
V\u110c\u1192\u11bc
p4123
sI61910
V\u110c\u1194
p4124
sI61911
V\u110c\u1194\u11a8
p4125
sI61912
V\u110c\u1194\u11ab
p4126
sI61913
V\u110c\u1194\u11af
p4127
sI61914
V\u110c\u1194\u11d9
p4128
sI61915
V\u110c\u1194\u11ba
p4129
sI61916
V\u110c\u1194\u11bc
p4130
sI61917
V\u110c\u1173\u11d0
p4131
sI61918
V\u110c\u1173\u11d9
p4132
sI61919
V\u110c\u1173\u11e2
p4133
sI61920
V\u110c\u1173\u11e6
p4134
sI61921
V\u110c\u1173\u11eb
p4135
sI61922
V\u110c\u1173\u11f0
p4136
sI61923
V\u110c\u1195
p4137
sI61924
V\u110c\u1196
p4138
sI61925
V\u110c\u1174\u11f0
p4139
sI61926
V\u110c\u1174\u11f9
p4140
sI61927
V\u110c\u1175\u11fe
p4141
sI61928
V\u110c\u1175\ud7d3
p4142
sI61929
V\u110c\u1175\u11cd
p4143
sI61930
V\u110c\u1175\u11d9
p4144
sI61931
V\u110c\u1175\u11dd
p4145
sI61932
V\u110c\u1175\u11e2
p4146
sI61933
V\u110c\u1175\u11e6
p4147
sI61934
V\u110c\u1175\ud7f0
p4148
sI61935
V\u110c\u1175\ud7f1
p4149
sI61936
V\u110c\u1175\ud7f2
p4150
sI61937
V\u110c\u1175\u11eb
p4151
sI61938
V\u110c\u1175\u11f0
p4152
sI61939
V\u110c\u1175\u11f9
p4153
sI61940
V\u110c\u1198
p4154
sI61941
V\u110c\u1199
p4155
sI61942
V\u110c\u1199\u11ab
p4156
sI61943
V\u110c\ud7bf
p4157
sI61944
V\u110c\ud7c0
p4158
sI61945
V\u110c\u119a
p4159
sI61946
V\u110c\u119a\u11af
p4160
sI61947
V\u110c\u119b
p4161
sI61948
V\u110c\u119e
p4162
sI61949
V\u110c\u119e\u11a8
p4163
sI61950
V\u110c\u119e\u11ab
p4164
sI61951
V\u110c\u119e\u11ae
p4165
sI61952
V\u110c\u119e\u11af
p4166
sI61953
V\u110c\u119e\u11cd
p4167
sI61954
V\u110c\u119e\u11d0
p4168
sI61955
V\u110c\u119e\u11d9
p4169
sI61956
V\u110c\u119e\u11b7
p4170
sI61957
V\u110c\u119e\u11da
p4171
sI61958
V\u110c\u119e\u11dd
p4172
sI61959
V\u110c\u119e\u11b8
p4173
sI61960
V\u110c\u119e\u11e6
p4174
sI61961
V\u110c\u119e\u11ba
p4175
sI61962
V\u110c\u119e\u11eb
p4176
sI61963
V\u110c\u119e\u11bc
p4177
sI61964
V\u110c\u119e\u11f0
p4178
sI61965
V\u110c\u119e\u11bd
p4179
sI61966
V\u110c\u119e\u11be
p4180
sI61967
V\u110c\u119e\u11c0
p4181
sI61968
V\u110c\ud7c5
p4182
sI61969
V\u110c\ud7c5\u11bc
p4183
sI61970
V\u110c\u11a1
p4184
sI61971
V\u110c\u11a1\u11a8
p4185
sI61972
V\u110c\u11a1\u11ab
p4186
sI61973
V\u110c\u11a1\u11ae
p4187
sI61974
V\u110c\u11a1\u11af
p4188
sI61975
V\u110c\u11a1\u11b7
p4189
sI61976
V\u110c\u11a1\u11b8
p4190
sI61977
V\u110c\u11a1\u11ba
p4191
sI61978
V\u110c\u11a1\u11bc
p4192
sI61979
V\u110c\u11a1\u11f0
p4193
sI61980
V\u114d\u1173
p4194
sI61981
V\u114d\u1173\u11af
p4195
sI61982
V\u114d\u1175
p4196
sI61983
V\u114d\u1175\u11af
p4197
sI61984
V\u110d\u1161\u11d0
p4198
sI61985
V\u110d\u1161\u11d9
p4199
sI61986
V\u110d\u1161\u11e2
p4200
sI61987
V\u110d\u1161\ud7e6
p4201
sI61988
V\u110d\u1161\u11f0
p4202
sI61989
V\u110d\u1161\u11f9
p4203
sI61990
V\u110d\u1163\u11e2
p4204
sI61991
V\u110d\u1163\u11e6
p4205
sI61992
V\u110d\u1163\u11f0
p4206
sI61993
V\u110d\u1165\u11f0
p4207
sI61994
V\u110d\u1165\u11f9
p4208
sI61995
V\u110d\u1167\u11d9
p4209
sI61996
V\u110d\u1167\u11f0
p4210
sI61997
V\u110d\u1169\u11d9
p4211
sI61998
V\u110d\u1169\u11e2
p4212
sI61999
V\u110d\u1169\u11f0
p4213
sI62000
V\u110d\u1169\ud7f9
p4214
sI62001
V\u110d\u1169\u11f9
p4215
sI62002
V\u110d\u116a\u11f0
p4216
sI62003
V\u110d\u117f
p4217
sI62004
V\u110d\u116c\u11f9
p4218
sI62005
V\u110d\u116d\u11e2
p4219
sI62006
V\u110d\u116d\u11f0
p4220
sI62007
V\u110d\u116e\u11d9
p4221
sI62008
V\u110d\u116e\u11e2
p4222
sI62009
V\u110d\u116e\u11f0
p4223
sI62010
V\u110d\u116e\u11f9
p4224
sI62011
V\u110d\u1171\u11f9
p4225
sI62012
V\u110d\u1172\u11d9
p4226
sI62013
V\u110d\u1172\u11e2
p4227
sI62014
V\u110d\u1191
p4228
sI62015
V\u110d\u1191\u11ab
p4229
sI62016
V\u110d\u1191\u11af
p4230
sI62017
V\u110d\u1191\u11d9
p4231
sI62018
V\u110d\u1191\u11f9
p4232
sI62019
V\u110d\u1194
p4233
sI62020
V\u110d\u1194\u11bc
p4234
sI62021
V\u110d\u1173\u11e2
p4235
sI62022
V\u110d\u1173\u11eb
p4236
sI62023
V\u110d\u1173\u11f0
p4237
sI62024
V\u110d\u1173\ud7f9
p4238
sI62025
V\u110d\u1174\u11f0
p4239
sI62026
V\u110d\u1174\u11f9
p4240
sI62027
V\u110d\u1175\u11d9
p4241
sI62028
V\u110d\u1175\u11e2
p4242
sI62029
V\u110d\u1175\u11eb
p4243
sI62030
V\u110d\u1175\u11f0
p4244
sI62031
V\u110d\u1175\u11f9
p4245
sI62032
V\u110d\u119e
p4246
sI62033
V\u110d\u119e\u11a8
p4247
sI62034
V\u110d\u119e\u11ab
p4248
sI62035
V\u110d\u119e\u11af
p4249
sI62036
V\u110d\u119e\u11b7
p4250
sI62037
V\u110d\u119e\u11b8
p4251
sI62038
V\u110d\u119e\u11e6
p4252
sI62039
V\u110d\u119e\u11ba
p4253
sI62040
V\u110d\u119e\u11bc
p4254
sI62041
V\u110d\u119e\u11f0
p4255
sI62042
V\u110d\u11a1
p4256
sI62043
V\u110d\u11a1\u11a8
p4257
sI62044
V\u110d\u11a1\u11ab
p4258
sI62045
V\u110d\u11a1\u11af
p4259
sI62046
V\u110d\u11a1\u11d9
p4260
sI62047
V\u110d\u11a1\u11b7
p4261
sI62048
V\u110d\u11a1\u11bc
p4262
sI62049
V\u110d\u11a1\u11f0
p4263
sI62050
V\u110d\u11a1\u11f9
p4264
sI62051
V\ua978\u1165
p4265
sI62052
V\ua978\u1166
p4266
sI62053
V\ua978\u1166\u11af
p4267
sI62054
V\ua978\u1166\u11d0
p4268
sI62055
V\ua978\u1166\ud7d7
p4269
sI62056
V\u114e\u1161
p4270
sI62057
V\u114e\u1161\u11ab
p4271
sI62058
V\u114e\u1161\u11b7
p4272
sI62059
V\u114e\u1161\u11e2
p4273
sI62060
V\u114e\u1162
p4274
sI62061
V\u114e\u1163
p4275
sI62062
V\u114e\u1163\u11bc
p4276
sI62063
V\u114e\u1165
p4277
sI62064
V\u114e\u1165\u11ab
p4278
sI62065
V\u114e\u1167
p4279
sI62066
V\u114e\u1167\u11ab
p4280
sI62067
V\u114e\u1167\u11f9
p4281
sI62068
V\u114e\u1168
p4282
sI62069
V\u114e\u1169
p4283
sI62070
V\u114e\u116a
p4284
sI62071
V\u114e\u116d
p4285
sI62072
V\u114e\u1184
p4286
sI62073
V\u114e\u116e
p4287
sI62074
V\u114e\u116e\u11ab
p4288
sI62075
V\u114e\u116e\u11bc
p4289
sI62076
V\u114e\u1171
p4290
sI62077
V\u114e\u1172
p4291
sI62078
V\u114e\u1172\u11ab
p4292
sI62079
V\u114e\u1172\u11bc
p4293
sI62080
V\u114e\u1191
p4294
sI62081
V\u114e\u1191\u11ab
p4295
sI62082
V\u114e\u1173
p4296
sI62083
V\u114e\u1173\u11ab
p4297
sI62084
V\u114e\u1173\u11ba
p4298
sI62085
V\u114e\u1173\u11eb
p4299
sI62086
V\u114e\u1175
p4300
sI62087
V\u114e\u1175\u11ab
p4301
sI62088
V\u114e\u1175\u11b7
p4302
sI62089
V\u114e\u1175\u11e2
p4303
sI62090
V\u114e\u1175\u11eb
p4304
sI62091
V\u114f\u1161
p4305
sI62092
V\u114f\u1161\u11ab
p4306
sI62093
V\u114f\u1161\u11b7
p4307
sI62094
V\u114f\u1161\u11e2
p4308
sI62095
V\u114f\u1161\u11f0
p4309
sI62096
V\u114f\u1162
p4310
sI62097
V\u114f\u1163
p4311
sI62098
V\u114f\u1163\u11b7
p4312
sI62099
V\u114f\u1163\u11f0
p4313
sI62100
V\u114f\u1165
p4314
sI62101
V\u114f\u1165\u11ab
p4315
sI62102
V\u114f\u1167
p4316
sI62103
V\u114f\u1167\u11ab
p4317
sI62104
V\u114f\u1168
p4318
sI62105
V\u114f\u116e
p4319
sI62106
V\u114f\u1171
p4320
sI62107
V\u114f\u1172
p4321
sI62108
V\u114f\u1172\u11f0
p4322
sI62109
V\u114f\u1191
p4323
sI62110
V\u114f\u1191\u11ab
p4324
sI62111
V\u114f\u1173
p4325
sI62112
V\u114f\u1173\u11eb
p4326
sI62113
V\u114f\u1173\u11f0
p4327
sI62114
V\u114f\u1175
p4328
sI62115
V\u114f\u1175\u11ab
p4329
sI62116
V\u114f\u119e
p4330
sI62117
V\u114f\u11a1
p4331
sI62118
V\u1150\u1161
p4332
sI62119
V\u1150\u1161\u11ab
p4333
sI62120
V\u1150\u1161\u11ae
p4334
sI62121
V\u1150\u1161\u11b7
p4335
sI62122
V\u1150\u1161\u11e2
p4336
sI62123
V\u1150\u1161\u11b8
p4337
sI62124
V\u1150\u1162
p4338
sI62125
V\u1150\u1163
p4339
sI62126
V\u1150\u1163\u11b7
p4340
sI62127
V\u1150\u1163\u11e2
p4341
sI62128
V\u1150\u1163\u11f0
p4342
sI62129
V\u1150\u1167
p4343
sI62130
V\u1150\u1167\u11ab
p4344
sI62131
V\u1150\u1169
p4345
sI62132
V\u1150\u116a
p4346
sI62133
V\u1150\u116a\u11bc
p4347
sI62134
V\u1150\u116e
p4348
sI62135
V\u1150\u116e\u11bc
p4349
sI62136
V\u1150\u116e\u11f9
p4350
sI62137
V\u1150\u1172
p4351
sI62138
V\u1150\u1172\u11a8
p4352
sI62139
V\u1150\u1172\u11ab
p4353
sI62140
V\u1150\u1172\u11f0
p4354
sI62141
V\u1150\u1191
p4355
sI62142
V\u1150\u1191\u11ab
p4356
sI62143
V\u1150\u1173
p4357
sI62144
V\u1150\u1173\u11b7
p4358
sI62145
V\u1150\u1173\u11eb
p4359
sI62146
V\u1150\u1175
p4360
sI62147
V\u1150\u1175\u11ab
p4361
sI62148
V\u1150\u1175\u11eb
p4362
sI62149
V\u1150\u1175\u11f0
p4363
sI62150
V\u1151\u1161
p4364
sI62151
V\u1151\u1161\u11ab
p4365
sI62152
V\u1151\u1161\u11c2
p4366
sI62153
V\u1151\u1162
p4367
sI62154
V\u1151\u1163
p4368
sI62155
V\u1151\u1163\u11b7
p4369
sI62156
V\u1151\u1163\u11e2
p4370
sI62157
V\u1151\u1163\u11b8
p4371
sI62158
V\u1151\u1163\u11f0
p4372
sI62159
V\u1151\u1167
p4373
sI62160
V\u1151\u1167\u11ab
p4374
sI62161
V\u1151\u116e
p4375
sI62162
V\u1151\u1171
p4376
sI62163
V\u1151\u1172
p4377
sI62164
V\u1151\u1172\u11f0
p4378
sI62165
V\u1151\u1191
p4379
sI62166
V\u1151\u1191\u11ab
p4380
sI62167
V\u1151\u1173
p4381
sI62168
V\u1151\u1173\u11b7
p4382
sI62169
V\u1151\u1173\u11e2
p4383
sI62170
V\u1151\u1175
p4384
sI62171
V\u1151\u1175\u11ab
p4385
sI62172
V\u1151\u1175\u11b7
p4386
sI62173
V\u1151\u1175\u11eb
p4387
sI62174
V\u1151\u1175\u11f0
p4388
sI62175
V\u110e\u1161\u11d9
p4389
sI62176
V\u110e\u1161\u11e2
p4390
sI62177
V\u110e\u1161\u11e6
p4391
sI62178
V\u110e\u1161\u11f0
p4392
sI62179
V\u110e\u1161\u11f9
p4393
sI62180
V\u110e\u1176
p4394
sI62181
V\u110e\u1163\u11d9
p4395
sI62182
V\u110e\u1163\u11e6
p4396
sI62183
V\u110e\u1163\u11f0
p4397
sI62184
V\u110e\u1163\u11f1
p4398
sI62185
V\u110e\u1178
p4399
sI62186
V\u110e\u1178\u11af
p4400
sI62187
V\u110e\u11a4
p4401
sI62188
V\u110e\u1165\u11eb
p4402
sI62189
V\u110e\u1165\u11f0
p4403
sI62190
V\u110e\u117c
p4404
sI62191
V\u110e\u117c\u11ab
p4405
sI62192
V\u110e\u1167\ud7cd
p4406
sI62193
V\u110e\u1167\ud7ce
p4407
sI62194
V\u110e\u1167\ud7cf
p4408
sI62195
V\u110e\u1167\u11d9
p4409
sI62196
V\u110e\u1167\u11e2
p4410
sI62197
V\u110e\u1167\u11f0
p4411
sI62198
V\u110e\u1167\u11f1
p4412
sI62199
V\u110e\u1167\u11f9
p4413
sI62200
V\u110e\u117d
p4414
sI62201
V\u110e\u117e
p4415
sI62202
V\u110e\u1169\u11d9
p4416
sI62203
V\u110e\u1169\u11e2
p4417
sI62204
V\u110e\u1169\ud7e8
p4418
sI62205
V\u110e\u1169\u11eb
p4419
sI62206
V\u110e\u1169\u11f0
p4420
sI62207
V\u110e\u116a\u11d9
p4421
sI62208
V\u110e\u116a\u11f0
p4422
sI62209
V\u110e\u1182
p4423
sI62210
V\u110e\u116d\u11e2
p4424
sI62211
V\u110e\u116d\u11f0
p4425
sI62212
V\u110e\u1187
p4426
sI62213
V\u110e\u1188
p4427
sI62214
V\u110e\u1188\u11ab
p4428
sI62215
V\u110e\u116e\u11d9
p4429
sI62216
V\u110e\u116e\u11e0
p4430
sI62217
V\u110e\u116e\u11e2
p4431
sI62218
V\u110e\u116e\u11f0
p4432
sI62219
V\u110e\u116e\u11f9
p4433
sI62220
V\u110e\u1189
p4434
sI62221
V\u110e\u1189\u11ab
p4435
sI62222
V\u110e\u1189\u11bc
p4436
sI62223
V\u110e\u118a
p4437
sI62224
V\u110e\u116f\u11f9
p4438
sI62225
V\u110e\ud7b5
p4439
sI62226
V\u110e\u118c
p4440
sI62227
V\u110e\u1171\u11d9
p4441
sI62228
V\u110e\u1171\u11f9
p4442
sI62229
V\u110e\u1172\u11d9
p4443
sI62230
V\u110e\u1172\u11e2
p4444
sI62231
V\u110e\u1172\u11f0
p4445
sI62232
V\u110e\u1172\u11f9
p4446
sI62233
V\u110e\u118e
p4447
sI62234
V\u110e\u118e\u11ab
p4448
sI62235
V\u110e\u118f
p4449
sI62236
V\u110e\u118f\u11b7
p4450
sI62237
V\u110e\u1190
p4451
sI62238
V\u110e\u1191
p4452
sI62239
V\u110e\u1191\u11ab
p4453
sI62240
V\u110e\u1191\u11af
p4454
sI62241
V\u110e\u1191\u11d9
p4455
sI62242
V\u110e\u1191\u11b7
p4456
sI62243
V\u110e\u1192
p4457
sI62244
V\u110e\u1192\u11bc
p4458
sI62245
V\u110e\u1194
p4459
sI62246
V\u110e\u1194\u11ab
p4460
sI62247
V\u110e\u1194\u11af
p4461
sI62248
V\u110e\u1194\u11bc
p4462
sI62249
V\u110e\u1173\ud7db
p4463
sI62250
V\u110e\u1173\u11d9
p4464
sI62251
V\u110e\u1173\ud7dd
p4465
sI62252
V\u110e\u1173\u11e2
p4466
sI62253
V\u110e\u1173\u11eb
p4467
sI62254
V\u110e\u1173\u11f0
p4468
sI62255
V\u110e\u1195
p4469
sI62256
V\u110e\u1196
p4470
sI62257
V\u110e\u1174\u11f9
p4471
sI62258
V\u110e\u1175\u11d9
p4472
sI62259
V\u110e\u1175\u11e2
p4473
sI62260
V\u110e\u1175\ud7e3
p4474
sI62261
V\u110e\u1175\u11e6
p4475
sI62262
V\u110e\u1175\u11eb
p4476
sI62263
V\u110e\u1175\u11f0
p4477
sI62264
V\u110e\u1175\u11f9
p4478
sI62265
V\u110e\u1198
p4479
sI62266
V\u110e\u1199
p4480
sI62267
V\u110e\u1199\u11ab
p4481
sI62268
V\u110e\u1199\u11bc
p4482
sI62269
V\u110e\ud7bf
p4483
sI62270
V\u110e\ud7c0
p4484
sI62271
V\u110e\ud7c2
p4485
sI62272
V\u110e\u119b
p4486
sI62273
V\u110e\u119e
p4487
sI62274
V\u110e\u119e\u11a8
p4488
sI62275
V\u110e\u119e\u11ab
p4489
sI62276
V\u110e\u119e\u11ae
p4490
sI62277
V\u110e\u119e\u11af
p4491
sI62278
V\u110e\u119e\u11ce
p4492
sI62279
V\u110e\u119e\u11b1
p4493
sI62280
V\u110e\u119e\u11b3
p4494
sI62281
V\u110e\u119e\u11b6
p4495
sI62282
V\u110e\u119e\u11d9
p4496
sI62283
V\u110e\u119e\u11b7
p4497
sI62284
V\u110e\u119e\u11dd
p4498
sI62285
V\u110e\u119e\u11b8
p4499
sI62286
V\u110e\u119e\u11ba
p4500
sI62287
V\u110e\u119e\u11bb
p4501
sI62288
V\u110e\u119e\u11bc
p4502
sI62289
V\u110e\u119e\u11bd
p4503
sI62290
V\u110e\u119e\u11be
p4504
sI62291
V\u110e\u11a1
p4505
sI62292
V\u110e\u11a1\u11a8
p4506
sI62293
V\u110e\u11a1\u11ab
p4507
sI62294
V\u110e\u11a1\u11af
p4508
sI62295
V\u110e\u11a1\u11b7
p4509
sI62296
V\u110e\u11a1\u11ba
p4510
sI62297
V\u110e\u11a1\u11bc
p4511
sI62298
V\u110e\u11a1\u11f0
p4512
sI62299
V\u1152\u116e
p4513
sI62300
V\u1152\u116f
p4514
sI62301
V\u1153\u1175
p4515
sI62302
V\u1153\u1175\u11af
p4516
sI62303
V\u1154\u1161
p4517
sI62304
V\u1154\u1161\u11ab
p4518
sI62305
V\u1154\u1176
p4519
sI62306
V\u1154\u1162
p4520
sI62307
V\u1154\u1165
p4521
sI62308
V\u1154\u1165\u11ab
p4522
sI62309
V\u1154\u1167
p4523
sI62310
V\u1154\u1167\u11ab
p4524
sI62311
V\u1154\u1168
p4525
sI62312
V\u1154\u1169
p4526
sI62313
V\u1154\u116d
p4527
sI62314
V\u1154\ud7b2
p4528
sI62315
V\u1154\u1184
p4529
sI62316
V\u1154\u116e
p4530
sI62317
V\u1154\u116e\u11ab
p4531
sI62318
V\u1154\u116e\u11bc
p4532
sI62319
V\u1154\u1171
p4533
sI62320
V\u1154\u1172
p4534
sI62321
V\u1154\u1172\u11ab
p4535
sI62322
V\u1154\u1191
p4536
sI62323
V\u1154\u1191\u11ab
p4537
sI62324
V\u1154\u1173
p4538
sI62325
V\u1154\u1175
p4539
sI62326
V\u1154\u1175\u11ab
p4540
sI62327
V\u1154\u1175\u11eb
p4541
sI62328
V\u1154\u1175\u11f0
p4542
sI62329
V\u1154\u1175\u11f9
p4543
sI62330
V\u1155\u1161
p4544
sI62331
V\u1155\u1161\u11ab
p4545
sI62332
V\u1155\u1161\u11b7
p4546
sI62333
V\u1155\u1161\u11e2
p4547
sI62334
V\u1155\u1161\u11f9
p4548
sI62335
V\u1155\u1162
p4549
sI62336
V\u1155\u1163
p4550
sI62337
V\u1155\u1163\u11f0
p4551
sI62338
V\u1155\u1167
p4552
sI62339
V\u1155\u1167\u11ab
p4553
sI62340
V\u1155\u1169
p4554
sI62341
V\u1155\u116a
p4555
sI62342
V\u1155\u116a\u11ab
p4556
sI62343
V\u1155\u116b
p4557
sI62344
V\u1155\u116e
p4558
sI62345
V\u1155\u1171
p4559
sI62346
V\u1155\u1172
p4560
sI62347
V\u1155\u1172\u11a8
p4561
sI62348
V\u1155\u1172\u11ab
p4562
sI62349
V\u1155\u1172\u11bc
p4563
sI62350
V\u1155\u1172\u11f0
p4564
sI62351
V\u1155\u1191
p4565
sI62352
V\u1155\u1191\u11ab
p4566
sI62353
V\u1155\u1173
p4567
sI62354
V\u1155\u1173\u11ab
p4568
sI62355
V\u1155\u1173\u11eb
p4569
sI62356
V\u1155\u1175
p4570
sI62357
V\u1155\u1175\u11ab
p4571
sI62358
V\u1155\u1175\u11b7
p4572
sI62359
V\u1155\u1175\u11e2
p4573
sI62360
V\u1155\u1175\u11eb
p4574
sI62361
V\u1155\u1175\u11f9
p4575
sI62362
V\u1155\u119b
p4576
sI62363
V\u110f\u1161\u11d0
p4577
sI62364
V\u110f\u1161\u11d9
p4578
sI62365
V\u110f\u1161\u11e2
p4579
sI62366
V\u110f\u1161\u11e6
p4580
sI62367
V\u110f\u1161\u11f0
p4581
sI62368
V\u110f\u1176
p4582
sI62369
V\u110f\u1163\u11e2
p4583
sI62370
V\u110f\u1163\u11f0
p4584
sI62371
V\u110f\u1163\u11f9
p4585
sI62372
V\u110f\u1178
p4586
sI62373
V\u110f\u1165\u11d9
p4587
sI62374
V\u110f\u1165\u11f9
p4588
sI62375
V\u110f\u117a
p4589
sI62376
V\u110f\u117b
p4590
sI62377
V\u110f\u1167\u11d9
p4591
sI62378
V\u110f\u1167\u11e2
p4592
sI62379
V\u110f\u1167\u11f0
p4593
sI62380
V\u110f\u1167\u11f9
p4594
sI62381
V\u110f\u117e
p4595
sI62382
V\u110f\u1169\u11d9
p4596
sI62383
V\u110f\u1169\u11e2
p4597
sI62384
V\u110f\u1169\u11f0
p4598
sI62385
V\u110f\u116a\u11d9
p4599
sI62386
V\u110f\u116a\u11f0
p4600
sI62387
V\u110f\u1182
p4601
sI62388
V\u110f\u116c\u11f0
p4602
sI62389
V\u110f\u116d\u11d9
p4603
sI62390
V\u110f\u116d\u11e2
p4604
sI62391
V\u110f\u1187
p4605
sI62392
V\u110f\u116e\u11d9
p4606
sI62393
V\u110f\u116e\u11e2
p4607
sI62394
V\u110f\u116e\u11f0
p4608
sI62395
V\u110f\u116e\u11f9
p4609
sI62396
V\u110f\u1189
p4610
sI62397
V\u110f\u1189\u11ab
p4611
sI62398
V\u110f\u1189\u11bc
p4612
sI62399
V\u110f\u118a
p4613
sI62400
V\u110f\u116f\u11d9
p4614
sI62401
V\u110f\u116f\u11f9
p4615
sI62402
V\u110f\ud7b5
p4616
sI62403
V\u110f\ud7b5\u11ab
p4617
sI62404
V\u110f\u118c
p4618
sI62405
V\u110f\u1172\u11f0
p4619
sI62406
V\u110f\u1172\u11f9
p4620
sI62407
V\u110f\u118f
p4621
sI62408
V\u110f\u1190
p4622
sI62409
V\u110f\u1191
p4623
sI62410
V\u110f\u1191\u11a8
p4624
sI62411
V\u110f\u1191\u11ab
p4625
sI62412
V\u110f\u1191\u11af
p4626
sI62413
V\u110f\u1191\u11d9
p4627
sI62414
V\u110f\u1191\u11f0
p4628
sI62415
V\u110f\u1191\u11f9
p4629
sI62416
V\u110f\u1192
p4630
sI62417
V\u110f\u1192\u11bc
p4631
sI62418
V\u110f\u1194
p4632
sI62419
V\u110f\u1194\u11bc
p4633
sI62420
V\u110f\u1173\u11d9
p4634
sI62421
V\u110f\u1173\u11e2
p4635
sI62422
V\u110f\u1173\u11f0
p4636
sI62423
V\u110f\u1195
p4637
sI62424
V\u110f\u1196
p4638
sI62425
V\u110f\u1174\u11f9
p4639
sI62426
V\u110f\u1175\u11d9
p4640
sI62427
V\u110f\u1175\u11f0
p4641
sI62428
V\u110f\u1175\u11f9
p4642
sI62429
V\u110f\u1198
p4643
sI62430
V\u110f\u1199
p4644
sI62431
V\u110f\u1199\u11ab
p4645
sI62432
V\u110f\u1199\u11bc
p4646
sI62433
V\u110f\ud7bd
p4647
sI62434
V\u110f\ud7bf
p4648
sI62435
V\u110f\ud7c0
p4649
sI62436
V\u110f\u119a
p4650
sI62437
V\u110f\ud7c2
p4651
sI62438
V\u110f\u119b
p4652
sI62439
V\u110f\u119b\u11af
p4653
sI62440
V\u110f\ud7c3
p4654
sI62441
V\u110f\ud7c3\u11ab
p4655
sI62442
V\u110f\u119e
p4656
sI62443
V\u110f\u119e\u11a8
p4657
sI62444
V\u110f\u119e\u11ab
p4658
sI62445
V\u110f\u119e\u11ae
p4659
sI62446
V\u110f\u119e\u11af
p4660
sI62447
V\u110f\u119e\u11b7
p4661
sI62448
V\u110f\u119e\u11b8
p4662
sI62449
V\u110f\u119e\u11ba
p4663
sI62450
V\u110f\u119e\u11c0
p4664
sI62451
V\u110f\u11a1
p4665
sI62452
V\u110f\u11a1\u11a8
p4666
sI62453
V\u110f\u11a1\u11ab
p4667
sI62454
V\u110f\u11a1\u11af
p4668
sI62455
V\u110f\u11a1\u11b7
p4669
sI62456
V\u110f\u11a1\u11ba
p4670
sI62457
V\u110f\u11a1\u11bc
p4671
sI62458
V\u110f\u11a1\u11f0
p4672
sI62459
V\u1110\u1161\u11d9
p4673
sI62460
V\u1110\u1161\u11e2
p4674
sI62461
V\u1110\u1161\u11f0
p4675
sI62462
V\u1110\u1161\u11f9
p4676
sI62463
V\u1110\u1176
p4677
sI62464
V\u1110\u1177
p4678
sI62465
V\u1110\u1163\u11e2
p4679
sI62466
V\u1110\u1163\u11f0
p4680
sI62467
V\u1110\u1178
p4681
sI62468
V\u1110\u1165\u11dd
p4682
sI62469
V\u1110\u1165\u11e6
p4683
sI62470
V\u1110\u1165\u11f0
p4684
sI62471
V\u1110\u1165\u11f1
p4685
sI62472
V\u1110\u117b
p4686
sI62473
V\u1110\u117b\u11ae
p4687
sI62474
V\u1110\u117b\u11af
p4688
sI62475
V\u1110\u1167\u11d9
p4689
sI62476
V\u1110\u1167\u11f0
p4690
sI62477
V\u1110\u1167\u11f9
p4691
sI62478
V\u1110\u1168\u11f0
p4692
sI62479
V\u1110\u1169\u11d0
p4693
sI62480
V\u1110\u1169\u11d9
p4694
sI62481
V\u1110\u1169\u11e2
p4695
sI62482
V\u1110\u1169\ud7e5
p4696
sI62483
V\u1110\u1169\u11e7
p4697
sI62484
V\u1110\u1169\u11f0
p4698
sI62485
V\u1110\u116a\u11d9
p4699
sI62486
V\u1110\u116a\u11f0
p4700
sI62487
V\u1110\u1182
p4701
sI62488
V\u1110\u1182\u11af
p4702
sI62489
V\u1110\u116d\u11d9
p4703
sI62490
V\u1110\u116d\u11e2
p4704
sI62491
V\u1110\u116d\u11f0
p4705
sI62492
V\u1110\u1188
p4706
sI62493
V\u1110\u116e\u11d0
p4707
sI62494
V\u1110\u116e\u11d9
p4708
sI62495
V\u1110\u116e\u11e2
p4709
sI62496
V\u1110\u116e\u11f0
p4710
sI62497
V\u1110\u116e\u11f9
p4711
sI62498
V\u1110\u1189
p4712
sI62499
V\u1110\u1189\u11ab
p4713
sI62500
V\u1110\u116f\u11f9
p4714
sI62501
V\u1110\ud7b5
p4715
sI62502
V\u1110\u118c
p4716
sI62503
V\u1110\u118d
p4717
sI62504
V\u1110\u1172\u11d9
p4718
sI62505
V\u1110\u1172\u11e2
p4719
sI62506
V\u1110\u1172\u11f0
p4720
sI62507
V\u1110\u1194
p4721
sI62508
V\u1110\u1173\u11d0
p4722
sI62509
V\u1110\u1173\u11d7
p4723
sI62510
V\u1110\u1173\u11d9
p4724
sI62511
V\u1110\u1173\u11e2
p4725
sI62512
V\u1110\u1173\u11f0
p4726
sI62513
V\u1110\u1195
p4727
sI62514
V\u1110\u1196
p4728
sI62515
V\u1110\u1174\u11f9
p4729
sI62516
V\u1110\u1175\u11d9
p4730
sI62517
V\u1110\u1175\u11e6
p4731
sI62518
V\u1110\u1175\u11f0
p4732
sI62519
V\u1110\u1198
p4733
sI62520
V\u1110\u1199
p4734
sI62521
V\u1110\u1199\u11ab
p4735
sI62522
V\u1110\ud7bf
p4736
sI62523
V\u1110\ud7c0
p4737
sI62524
V\u1110\u119e
p4738
sI62525
V\u1110\u119e\u11a8
p4739
sI62526
V\u1110\u119e\u11ab
p4740
sI62527
V\u1110\u119e\u11ae
p4741
sI62528
V\u1110\u119e\u11af
p4742
sI62529
V\u1110\u119e\u11b0
p4743
sI62530
V\u1110\u119e\u11b3
p4744
sI62531
V\u1110\u119e\u11b7
p4745
sI62532
V\u1110\u119e\u11b8
p4746
sI62533
V\u1110\u119e\u11ba
p4747
sI62534
V\u1110\u119e\u11bc
p4748
sI62535
V\u1110\u119e\u11bd
p4749
sI62536
V\u1110\u11a1
p4750
sI62537
V\u1110\u11a1\u11a8
p4751
sI62538
V\u1110\u11a1\u11ab
p4752
sI62539
V\u1110\u11a1\u11af
p4753
sI62540
V\u1110\u11a1\u11b7
p4754
sI62541
V\u1110\u11a1\u11ba
p4755
sI62542
V\u1110\u11a1\u11bc
p4756
sI62543
V\u1110\u11a1\u11f0
p4757
sI62544
V\u1110\u11a1\u11f9
p4758
sI62545
V\ua979\u116e
p4759
sI62546
V\ua979\u119e
p4760
sI62547
V\ua979\u119e\u11af
p4761
sI62548
V\u1111\u1161\u11d0
p4762
sI62549
V\u1111\u1161\u11d8
p4763
sI62550
V\u1111\u1161\u11d9
p4764
sI62551
V\u1111\u1161\u11e2
p4765
sI62552
V\u1111\u1161\u11e6
p4766
sI62553
V\u1111\u1161\u11e7
p4767
sI62554
V\u1111\u1161\u11f0
p4768
sI62555
V\u1111\u1161\u11f9
p4769
sI62556
V\u1111\u1176
p4770
sI62557
V\u1111\u1162\u11f9
p4771
sI62558
V\u1111\u1163\u11e2
p4772
sI62559
V\u1111\u1178
p4773
sI62560
V\u1111\u1165\u11d0
p4774
sI62561
V\u1111\u1165\u11f0
p4775
sI62562
V\u1111\u117a
p4776
sI62563
V\u1111\u117c
p4777
sI62564
V\u1111\u117c\u11af
p4778
sI62565
V\u1111\u1166\u11c7
p4779
sI62566
V\u1111\u1167\u11c7
p4780
sI62567
V\u1111\u1167\u11d9
p4781
sI62568
V\u1111\u1167\u11e2
p4782
sI62569
V\u1111\u1167\u11f0
p4783
sI62570
V\u1111\u1167\u11f9
p4784
sI62571
V\u1111\u1169\u11d9
p4785
sI62572
V\u1111\u1169\u11e2
p4786
sI62573
V\u1111\u1169\u11f0
p4787
sI62574
V\u1111\u1182
p4788
sI62575
V\u1111\u116d\u11e2
p4789
sI62576
V\u1111\u116d\u11e6
p4790
sI62577
V\u1111\u1188
p4791
sI62578
V\u1111\u116e\u11d0
p4792
sI62579
V\u1111\u116e\u11d9
p4793
sI62580
V\u1111\u116e\u11e2
p4794
sI62581
V\u1111\u116e\u11f0
p4795
sI62582
V\u1111\u116e\u11f1
p4796
sI62583
V\u1111\u116f\u11f9
p4797
sI62584
V\u1111\ud7b5
p4798
sI62585
V\u1111\u118c
p4799
sI62586
V\u1111\u1171\u11f9
p4800
sI62587
V\u1111\u1172\u11e2
p4801
sI62588
V\u1111\u1172\u11f0
p4802
sI62589
V\u1111\u118e
p4803
sI62590
V\u1111\u118e\u11ab
p4804
sI62591
V\u1111\u1194
p4805
sI62592
V\u1111\u1173\u11d9
p4806
sI62593
V\u1111\u1173\u11f0
p4807
sI62594
V\u1111\u1196
p4808
sI62595
V\u1111\u1174\u11f0
p4809
sI62596
V\u1111\u1174\u11f9
p4810
sI62597
V\u1111\u1175\u11d9
p4811
sI62598
V\u1111\u1175\u11f0
p4812
sI62599
V\u1111\u1175\u11f9
p4813
sI62600
V\u1111\u1198
p4814
sI62601
V\u1111\u1199
p4815
sI62602
V\u1111\u1199\u11ab
p4816
sI62603
V\u1111\ud7bd
p4817
sI62604
V\u1111\ud7bf
p4818
sI62605
V\u1111\ud7c0
p4819
sI62606
V\u1111\u119e
p4820
sI62607
V\u1111\u119e\u11a8
p4821
sI62608
V\u1111\u119e\u11ab
p4822
sI62609
V\u1111\u119e\u11ae
p4823
sI62610
V\u1111\u119e\u11af
p4824
sI62611
V\u1111\u119e\u11b0
p4825
sI62612
V\u1111\u119e\u11b3
p4826
sI62613
V\u1111\u119e\u11b6
p4827
sI62614
V\u1111\u119e\u11b7
p4828
sI62615
V\u1111\u119e\u11b8
p4829
sI62616
V\u1111\u119e\u11ba
p4830
sI62617
V\u1111\u119e\u11e7
p4831
sI62618
V\u1111\u119e\u11bc
p4832
sI62619
V\u1111\u119e\u11bd
p4833
sI62620
V\u1111\u119e\u11be
p4834
sI62621
V\u1111\u119e\u11c0
p4835
sI62622
V\u1111\u119f
p4836
sI62623
V\u1111\u119f\u11ab
p4837
sI62624
V\u1111\u11a1
p4838
sI62625
V\u1111\u11a1\u11a8
p4839
sI62626
V\u1111\u11a1\u11ab
p4840
sI62627
V\u1111\u11a1\u11af
p4841
sI62628
V\u1111\u11a1\u11b7
p4842
sI62629
V\u1111\u11a1\u11b8
p4843
sI62630
V\u1111\u11a1\u11ba
p4844
sI62631
V\u1111\u11a1\u11bc
p4845
sI62632
V\u1111\u11a1\u11f0
p4846
sI62633
V\u1156\u1161
p4847
sI62634
V\u1156\u1161\u11ab
p4848
sI62635
V\ua97a\u1175
p4849
sI62636
V\ua97a\u1175\u11ab
p4850
sI62637
V\u1157\u116e
p4851
sI62638
V\u1157\u116e\u11ab
p4852
sI62639
V\u1112\u1161\u11ce
p4853
sI62640
V\u1112\u1161\u11cf
p4854
sI62641
V\u1112\u1161\u11d0
p4855
sI62642
V\u1112\u1161\ud7d8
p4856
sI62643
V\u1112\u1161\u11d9
p4857
sI62644
V\u1112\u1161\ud7e2
p4858
sI62645
V\u1112\u1161\u11e2
p4859
sI62646
V\u1112\u1161\u11f0
p4860
sI62647
V\u1112\u1161\u11f1
p4861
sI62648
V\u1112\u1176
p4862
sI62649
V\u1112\u1177
p4863
sI62650
V\u1112\u1162\u11eb
p4864
sI62651
V\u1112\u1162\u11f0
p4865
sI62652
V\u1112\u1162\ud7f6
p4866
sI62653
V\u1112\u1163\u11c7
p4867
sI62654
V\u1112\u1163\u11e2
p4868
sI62655
V\u1112\u1163\u11f0
p4869
sI62656
V\u1112\u1163\u11f9
p4870
sI62657
V\u1112\u1178
p4871
sI62658
V\u1112\u1164\u11f0
p4872
sI62659
V\u1112\u1165\u11d0
p4873
sI62660
V\u1112\u1165\u11d9
p4874
sI62661
V\u1112\u1165\u11f0
p4875
sI62662
V\u1112\u1165\u11f1
p4876
sI62663
V\u1112\u117c\u11f9
p4877
sI62664
V\u1112\u117a
p4878
sI62665
V\u1112\u117b
p4879
sI62666
V\u1112\u117c
p4880
sI62667
V\u1112\u117c\u11ab
p4881
sI62668
V\u1112\u117c\u11b7
p4882
sI62669
V\u1112\u1167\u11d9
p4883
sI62670
V\u1112\u1167\u11e2
p4884
sI62671
V\u1112\u1167\u11f0
p4885
sI62672
V\u1112\u1167\u11f9
p4886
sI62673
V\u1112\u1168\u11d9
p4887
sI62674
V\u1112\u1169\u11c7
p4888
sI62675
V\u1112\u1169\u11cd
p4889
sI62676
V\u1112\u1169\u11d9
p4890
sI62677
V\u1112\u1169\u11da
p4891
sI62678
V\u1112\u1169\u11dd
p4892
sI62679
V\u1112\u1169\u11e2
p4893
sI62680
V\u1112\u1169\u11eb
p4894
sI62681
V\u1112\u1169\u11f0
p4895
sI62682
V\u1112\u1169\u11f1
p4896
sI62683
V\u1112\u116a\u11d9
p4897
sI62684
V\u1112\u116a\u11f0
p4898
sI62685
V\u1112\u116a\u11f1
p4899
sI62686
V\u1112\u116b\u11f9
p4900
sI62687
V\u1112\u11a6
p4901
sI62688
V\u1112\u117f
p4902
sI62689
V\u1112\u117f\u11ab
p4903
sI62690
V\u1112\u117f\u11f9
p4904
sI62691
V\u1112\u1180
p4905
sI62692
V\u1112\u1182
p4906
sI62693
V\u1112\u116c\u11f0
p4907
sI62694
V\u1112\u116c\u11f9
p4908
sI62695
V\u1112\u116d\u11d9
p4909
sI62696
V\u1112\u116d\u11e2
p4910
sI62697
V\u1112\ud7b2
p4911
sI62698
V\u1112\ud7b2\u11ab
p4912
sI62699
V\u1112\u1184
p4913
sI62700
V\u1112\u1184\u11bc
p4914
sI62701
V\u1112\u1187
p4915
sI62702
V\u1112\u1188
p4916
sI62703
V\u1112\u1188\u11ab
p4917
sI62704
V\u1112\u116e\u11d9
p4918
sI62705
V\u1112\u116e\u11dd
p4919
sI62706
V\u1112\u116e\u11e2
p4920
sI62707
V\u1112\u116e\u11eb
p4921
sI62708
V\u1112\u116e\u11f0
p4922
sI62709
V\u1112\u116e\u11f9
p4923
sI62710
V\u1112\u1189
p4924
sI62711
V\u1112\u1189\u11ab
p4925
sI62712
V\u1112\u1189\u11bc
p4926
sI62713
V\u1112\u118a
p4927
sI62714
V\u1112\u116f\u11d9
p4928
sI62715
V\u1112\u116f\u11f0
p4929
sI62716
V\u1112\u116f\u11f9
p4930
sI62717
V\u1112\u118b
p4931
sI62718
V\u1112\u118b\u11ab
p4932
sI62719
V\u1112\u118b\u11af
p4933
sI62720
V\u1112\ud7b5
p4934
sI62721
V\u1112\u118c
p4935
sI62722
V\u1112\u1171\u11f0
p4936
sI62723
V\u1112\u1171\u11f9
p4937
sI62724
V\u1112\u1172\u11d9
p4938
sI62725
V\u1112\u1172\u11e2
p4939
sI62726
V\u1112\u1172\u11f0
p4940
sI62727
V\u1112\u118e
p4941
sI62728
V\u1112\u118e\u11ab
p4942
sI62729
V\u1112\u1191
p4943
sI62730
V\u1112\u1191\u11a8
p4944
sI62731
V\u1112\u1191\u11ab
p4945
sI62732
V\u1112\u1191\u11af
p4946
sI62733
V\u1112\u1191\u11d9
p4947
sI62734
V\u1112\u1191\u11bc
p4948
sI62735
V\u1112\u1191\u11f0
p4949
sI62736
V\u1112\u1191\u11f9
p4950
sI62737
V\u1112\u1192
p4951
sI62738
V\u1112\u1192\u11af
p4952
sI62739
V\u1112\u1192\u11bc
p4953
sI62740
V\u1112\u1194
p4954
sI62741
V\u1112\u1194\u11bc
p4955
sI62742
V\u1112\u1173\u11c3
p4956
sI62743
V\u1112\u1173\ud7d4
p4957
sI62744
V\u1112\u1173\u11d0
p4958
sI62745
V\u1112\u1173\u11d9
p4959
sI62746
V\u1112\u1173\u11e2
p4960
sI62747
V\u1112\u1173\u11f0
p4961
sI62748
V\u1112\ud7b9
p4962
sI62749
V\u1112\ud7bc
p4963
sI62750
V\u1112\u1195
p4964
sI62751
V\u1112\u1196
p4965
sI62752
V\u1112\u1174\u11eb
p4966
sI62753
V\u1112\u1174\u11f0
p4967
sI62754
V\u1112\u1174\u11f9
p4968
sI62755
V\u1112\u1175\u11ff
p4969
sI62756
V\u1112\u1175\u11d9
p4970
sI62757
V\u1112\u1175\u11dc
p4971
sI62758
V\u1112\u1175\ud7e1
p4972
sI62759
V\u1112\u1175\u11dd
p4973
sI62760
V\u1112\u1175\u11de
p4974
sI62761
V\u1112\u1175\u11e2
p4975
sI62762
V\u1112\u1175\u11ee
p4976
sI62763
V\u1112\u1175\u11f0
p4977
sI62764
V\u1112\u1175\u11f1
p4978
sI62765
V\u1112\u1198
p4979
sI62766
V\u1112\u1199
p4980
sI62767
V\u1112\u1199\u11ab
p4981
sI62768
V\u1112\u1199\u11bc
p4982
sI62769
V\u1112\ud7bf
p4983
sI62770
V\u1112\ud7c0
p4984
sI62771
V\u1112\ud7c2
p4985
sI62772
V\u1112\u119b
p4986
sI62773
V\u1112\ud7c3
p4987
sI62774
V\u1112\ud7c3\u11ab
p4988
sI62775
V\u1112\u119e
p4989
sI62776
V\u1112\u119e\u11a8
p4990
sI62777
V\u1112\u119e\u11c3
p4991
sI62778
V\u1112\u119e\u11ab
p4992
sI62779
V\u1112\u119e\u11ae
p4993
sI62780
V\u1112\u119e\u11af
p4994
sI62781
V\u1112\u119e\u11b0
p4995
sI62782
V\u1112\u119e\u11cd
p4996
sI62783
V\u1112\u119e\u11ce
p4997
sI62784
V\u1112\u119e\u11d0
p4998
sI62785
V\u1112\u119e\u11b1
p4999
sI62786
V\u1112\u119e\u11b3
p5000
sI62787
V\u1112\u119e\u11b6
p5001
sI62788
V\u1112\u119e\u11d9
p5002
sI62789
V\u1112\u119e\u11b7
p5003
sI62790
V\u1112\u119e\u11b8
p5004
sI62791
V\u1112\u119e\u11e6
p5005
sI62792
V\u1112\u119e\u11ba
p5006
sI62793
V\u1112\u119e\u11bc
p5007
sI62794
V\u1112\u119e\u11f0
p5008
sI62795
V\u1112\u119e\u11c0
p5009
sI62796
V\u1112\u119e\u11c2
p5010
sI62797
V\u1112\u119e\u11f9
p5011
sI62798
V\u1112\u119f
p5012
sI62799
V\u1112\u119f\u11ab
p5013
sI62800
V\u1112\u11a1
p5014
sI62801
V\u1112\u11a1\u11a8
p5015
sI62802
V\u1112\u11a1\u11ab
p5016
sI62803
V\u1112\u11a1\u11ae
p5017
sI62804
V\u1112\u11a1\u11af
p5018
sI62805
V\u1112\u11a1\u11b0
p5019
sI62806
V\u1112\u11a1\u11d9
p5020
sI62807
V\u1112\u11a1\u11b7
p5021
sI62808
V\u1112\u11a1\u11b8
p5022
sI62809
V\u1112\u11a1\ud7e8
p5023
sI62810
V\u1112\u11a1\u11ba
p5024
sI62811
V\u1112\u11a1\u11bc
p5025
sI62812
V\u1112\u11a1\u11f0
p5026
sI62813
V\ua97b\u1163
p5027
sI62814
V\ua97b\u1163\u11bc
p5028
sI62815
V\ua97b\u1169
p5029
sI62816
V\ua97b\u116a
p5030
sI62817
V\ua97b\u116a\u11ab
p5031
sI62818
V\ua97b\u116e
p5032
sI62819
V\ua97b\u116f
p5033
sI62820
V\ua97b\u1170
p5034
sI62821
V\ua97b\u1171
p5035
sI62822
V\ua97b\u1172
p5036
sI62823
V\ua97b\u1172\u11bc
p5037
sI62824
V\ua97b\u118e
p5038
sI62825
V\ua97b\u118e\u11ab
p5039
sI62826
V\ua97b\u118f
p5040
sI62827
V\ua97b\u1190
p5041
sI62828
V\ua97b\u1194
p5042
sI62829
V\ua97b\u1194\u11ab
p5043
sI62830
V\ua97b\u1175
p5044
sI62831
V\ua97b\u1175\u11ab
p5045
sI62832
V\ua97b\u1175\u11bc
p5046
sI62833
V\u1158\u1161
p5047
sI62834
V\u1158\u1161\u11a8
p5048
sI62835
V\u1158\u1161\u11ab
p5049
sI62836
V\u1158\u1161\u11af
p5050
sI62837
V\u1158\u1161\u11d9
p5051
sI62838
V\u1158\u1161\u11b7
p5052
sI62839
V\u1158\u1161\u11e2
p5053
sI62840
V\u1158\u1161\u11b8
p5054
sI62841
V\u1158\u1161\u11e6
p5055
sI62842
V\u1158\u1161\u11bc
p5056
sI62843
V\u1158\u1161\u11f0
p5057
sI62844
V\u1158\u1162
p5058
sI62845
V\u1158\u1162\u11bc
p5059
sI62846
V\u1158\u1162\u11f0
p5060
sI62847
V\u1158\u1163
p5061
sI62848
V\u1158\u1163\u11ab
p5062
sI62849
V\u1158\u1163\u11b7
p5063
sI62850
V\u1158\u1163\u11e2
p5064
sI62851
V\u1158\u1163\u11b8
p5065
sI62852
V\u1158\u1163\u11e6
p5066
sI62853
V\u1158\u1163\u11f0
p5067
sI62854
V\u1158\u1163\u11f9
p5068
sI62855
V\u1158\u1164
p5069
sI62856
V\u1158\u1165
p5070
sI62857
V\u1158\u1165\u11ab
p5071
sI62858
V\u1158\u1165\u11af
p5072
sI62859
V\u1158\u1165\u11b7
p5073
sI62860
V\u1158\u1165\u11e2
p5074
sI62861
V\u1158\u1165\u11f9
p5075
sI62862
V\u1158\u1166
p5076
sI62863
V\u1158\u1166\u11bc
p5077
sI62864
V\u1158\u1167
p5078
sI62865
V\u1158\u1167\u11a8
p5079
sI62866
V\u1158\u1167\u11ab
p5080
sI62867
V\u1158\u1167\u11af
p5081
sI62868
V\u1158\u1167\u11d9
p5082
sI62869
V\u1158\u1167\u11b7
p5083
sI62870
V\u1158\u1167\u11b8
p5084
sI62871
V\u1158\u1167\u11f0
p5085
sI62872
V\u1158\u1167\u11f9
p5086
sI62873
V\u1158\u1168
p5087
sI62874
V\u1158\u1168\u11bc
p5088
sI62875
V\u1158\u1169
p5089
sI62876
V\u1158\u1169\u11a8
p5090
sI62877
V\u1158\u1169\u11ab
p5091
sI62878
V\u1158\u1169\u11af
p5092
sI62879
V\u1158\u1169\u11d9
p5093
sI62880
V\u1158\u1169\u11b7
p5094
sI62881
V\u1158\u1169\u11e2
p5095
sI62882
V\u1158\u1169\u11bc
p5096
sI62883
V\u1158\u1169\u11f0
p5097
sI62884
V\u1158\u116a
p5098
sI62885
V\u1158\u116a\u11a8
p5099
sI62886
V\u1158\u116a\u11ab
p5100
sI62887
V\u1158\u116a\u11af
p5101
sI62888
V\u1158\u116a\u11d9
p5102
sI62889
V\u1158\u116a\u11bc
p5103
sI62890
V\u1158\u116a\u11f0
p5104
sI62891
V\u1158\u116a\u11f9
p5105
sI62892
V\u1158\u116b
p5106
sI62893
V\u1158\u116b\u11bc
p5107
sI62894
V\u1158\u116c
p5108
sI62895
V\u1158\u116c\u11a8
p5109
sI62896
V\u1158\u116c\u11bc
p5110
sI62897
V\u1158\u116c\u11f0
p5111
sI62898
V\u1158\u116d
p5112
sI62899
V\u1158\u116d\u11b7
p5113
sI62900
V\u1158\u116d\u11e2
p5114
sI62901
V\u1158\u116e
p5115
sI62902
V\u1158\u116e\u11ab
p5116
sI62903
V\u1158\u116e\u11b7
p5117
sI62904
V\u1158\u116e\u11e2
p5118
sI62905
V\u1158\u116e\u11b8
p5119
sI62906
V\u1158\u116e\u11e6
p5120
sI62907
V\u1158\u116e\u11bc
p5121
sI62908
V\u1158\u116e\u11f0
p5122
sI62909
V\u1158\u116e\u11f9
p5123
sI62910
V\u1158\u116f
p5124
sI62911
V\u1158\u116f\u11ab
p5125
sI62912
V\u1158\u116f\u11f9
p5126
sI62913
V\u1158\u1171
p5127
sI62914
V\u1158\u1171\u11f9
p5128
sI62915
V\u1158\u1172
p5129
sI62916
V\u1158\u1172\u11b7
p5130
sI62917
V\u1158\u118f
p5131
sI62918
V\u1158\u118f\u11ab
p5132
sI62919
V\u1158\u1191
p5133
sI62920
V\u1158\u1191\u11ab
p5134
sI62921
V\u1158\u1191\u11af
p5135
sI62922
V\u1158\u1191\u11d9
p5136
sI62923
V\u1158\u1191\u11bc
p5137
sI62924
V\u1158\u1191\u11f0
p5138
sI62925
V\u1158\u1192
p5139
sI62926
V\u1158\u1192\u11bc
p5140
sI62927
V\u1158\u1173
p5141
sI62928
V\u1158\u1173\u11a8
p5142
sI62929
V\u1158\u1173\u11ab
p5143
sI62930
V\u1158\u1173\u11b7
p5144
sI62931
V\u1158\u1173\u11e2
p5145
sI62932
V\u1158\u1173\u11bc
p5146
sI62933
V\u1158\u1173\u11f0
p5147
sI62934
V\u1158\u1195
p5148
sI62935
V\u1158\u1174
p5149
sI62936
V\u1158\u1174\u11a8
p5150
sI62937
V\u1158\u1174\u11f0
p5151
sI62938
V\u1158\u1174\u11c2
p5152
sI62939
V\u1158\u1174\u11f9
p5153
sI62940
V\u1158\u1175
p5154
sI62941
V\u1158\u1175\u11ab
p5155
sI62942
V\u1158\u1175\u11b7
p5156
sI62943
V\u1158\u1175\u11e2
p5157
sI62944
V\u1158\u1175\u11f0
p5158
sI62945
V\u1158\u1175\u11f9
p5159
sI62946
V\u1158\u119e
p5160
sI62947
V\u1158\u119e\u11ab
p5161
sI62948
V\u1158\u11a1
p5162
sI62949
V\u1158\u11a1\u11a8
p5163
sI62950
V\u1158\u11a1\u11bc
p5164
sI62951
V\u1158\u11a1\u11f0
p5165
sI62952
V\u1159\u1161
p5166
sI62953
V\u1159\u1161\u11a8
p5167
sI62954
V\u1159\u1161\u11ab
p5168
sI62955
V\u1159\u1161\u11af
p5169
sI62956
V\u1159\u1161\u11d9
p5170
sI62957
V\u1159\u1161\u11b7
p5171
sI62958
V\u1159\u1161\u11e2
p5172
sI62959
V\u1159\u1161\u11b8
p5173
sI62960
V\u1159\u1161\u11e6
p5174
sI62961
V\u1159\u1161\u11bc
p5175
sI62962
V\u1159\u1161\u11f0
p5176
sI62963
V\u1159\u1162
p5177
sI62964
V\u1159\u1162\u11bc
p5178
sI62965
V\u1159\u1162\u11f0
p5179
sI62966
V\u1159\u1163
p5180
sI62967
V\u1159\u1163\u11a8
p5181
sI62968
V\u1159\u1163\u11ab
p5182
sI62969
V\u1159\u1163\u11b7
p5183
sI62970
V\u1159\u1163\u11e2
p5184
sI62971
V\u1159\u1163\u11b8
p5185
sI62972
V\u1159\u1163\u11e6
p5186
sI62973
V\u1159\u1163\u11f0
p5187
sI62974
V\u1159\u1163\u11f9
p5188
sI62975
V\u1159\u1164
p5189
sI62976
V\u1159\u1165
p5190
sI62977
V\u1159\u1165\u11ab
p5191
sI62978
V\u1159\u1165\u11af
p5192
sI62979
V\u1159\u1165\u11d9
p5193
sI62980
V\u1159\u1165\u11b7
p5194
sI62981
V\u1159\u1165\u11b8
p5195
sI62982
V\u1159\u1165\u11bc
p5196
sI62983
V\u1159\u1166
p5197
sI62984
V\u1159\u1166\u11bc
p5198
sI62985
V\u1159\u1167
p5199
sI62986
V\u1159\u1167\u11a8
p5200
sI62987
V\u1159\u1167\u11ab
p5201
sI62988
V\u1159\u1167\u11af
p5202
sI62989
V\u1159\u1167\u11d9
p5203
sI62990
V\u1159\u1167\u11b7
p5204
sI62991
V\u1159\u1167\u11b8
p5205
sI62992
V\u1159\u1167\u11f0
p5206
sI62993
V\u1159\u1167\u11c2
p5207
sI62994
V\u1159\u1168
p5208
sI62995
V\u1159\u1168\u11bc
p5209
sI62996
V\u1159\u1169
p5210
sI62997
V\u1159\u1169\u11a8
p5211
sI62998
V\u1159\u1169\u11ab
p5212
sI62999
V\u1159\u1169\u11b7
p5213
sI63000
V\u1159\u1169\u11e2
p5214
sI63001
V\u1159\u1169\u11bc
p5215
sI63002
V\u1159\u1169\u11f0
p5216
sI63003
V\u1159\u116a
p5217
sI63004
V\u1159\u116a\u11a8
p5218
sI63005
V\u1159\u116a\u11ab
p5219
sI63006
V\u1159\u116a\u11af
p5220
sI63007
V\u1159\u116a\u11d9
p5221
sI63008
V\u1159\u116a\u11b8
p5222
sI63009
V\u1159\u116a\u11e6
p5223
sI63010
V\u1159\u116a\u11bc
p5224
sI63011
V\u1159\u116a\u11f0
p5225
sI63012
V\u1159\u116a\u11f9
p5226
sI63013
V\u1159\u116b
p5227
sI63014
V\u1159\u116b\u11bc
p5228
sI63015
V\u1159\u116c
p5229
sI63016
V\u1159\u116c\u11a8
p5230
sI63017
V\u1159\u116c\u11bc
p5231
sI63018
V\u1159\u116c\u11f0
p5232
sI63019
V\u1159\u116d
p5233
sI63020
V\u1159\u116d\u11a8
p5234
sI63021
V\u1159\u116d\u11b7
p5235
sI63022
V\u1159\u116d\u11e2
p5236
sI63023
V\u1159\u116d\u11bc
p5237
sI63024
V\u1159\u116e
p5238
sI63025
V\u1159\u116e\u11a8
p5239
sI63026
V\u1159\u116e\u11ab
p5240
sI63027
V\u1159\u116e\u11af
p5241
sI63028
V\u1159\u116e\u11d9
p5242
sI63029
V\u1159\u116e\u11b7
p5243
sI63030
V\u1159\u116e\u11e2
p5244
sI63031
V\u1159\u116e\u11bc
p5245
sI63032
V\u1159\u116e\u11f0
p5246
sI63033
V\u1159\u116e\u11f9
p5247
sI63034
V\u1159\u116f
p5248
sI63035
V\u1159\u116f\u11ab
p5249
sI63036
V\u1159\u116f\u11af
p5250
sI63037
V\u1159\u116f\u11d9
p5251
sI63038
V\u1159\u116f\u11bc
p5252
sI63039
V\u1159\u1171
p5253
sI63040
V\u1159\u1171\u11bc
p5254
sI63041
V\u1159\u1172
p5255
sI63042
V\u1159\u1172\u11ab
p5256
sI63043
V\u1159\u1172\u11b7
p5257
sI63044
V\u1159\u1172\u11e2
p5258
sI63045
V\u1159\u1172\u11f9
p5259
sI63046
V\u1159\u1191
p5260
sI63047
V\u1159\u1191\u11a8
p5261
sI63048
V\u1159\u1191\u11ab
p5262
sI63049
V\u1159\u1191\u11af
p5263
sI63050
V\u1159\u1191\u11d9
p5264
sI63051
V\u1159\u1191\u11bc
p5265
sI63052
V\u1159\u1191\u11f0
p5266
sI63053
V\u1159\u1192
p5267
sI63054
V\u1159\u1192\u11bc
p5268
sI63055
V\u1159\u1194
p5269
sI63056
V\u1159\u1194\u11bc
p5270
sI63057
V\u1159\u1173
p5271
sI63058
V\u1159\u1173\u11a8
p5272
sI63059
V\u1159\u1173\u11ab
p5273
sI63060
V\u1159\u1173\u11b7
p5274
sI63061
V\u1159\u1173\u11e2
p5275
sI63062
V\u1159\u1173\u11b8
p5276
sI63063
V\u1159\u1173\u11f0
p5277
sI63064
V\u1159\u1173\u11f9
p5278
sI63065
V\u1159\u1174
p5279
sI63066
V\u1159\u1174\u11ab
p5280
sI63067
V\u1159\u1174\u11bc
p5281
sI63068
V\u1159\u1175
p5282
sI63069
V\u1159\u1175\u11ab
p5283
sI63070
V\u1159\u1175\u11af
p5284
sI63071
V\u1159\u1175\u11d9
p5285
sI63072
V\u1159\u1175\u11b7
p5286
sI63073
V\u1159\u1175\u11e2
p5287
sI63074
V\u1159\u1175\u11bc
p5288
sI63075
V\u1159\u1175\u11f0
p5289
sI63076
V\u1159\u1175\u11f9
p5290
sI63077
V\u1159\u119e
p5291
sI63078
V\u1159\u119e\u11ab
p5292
sI63079
V\u1159\u119e\u11b7
p5293
sI63080
V\u1159\u11a1
p5294
sI63081
V\u1159\u11a1\u11a8
p5295
sI63082
V\u1159\u11a1\u11af
p5296
sI63083
V\u1159\u11a1\u11cd
p5297
sI63084
V\u1159\u11a1\u11b1
p5298
sI63085
V\u1159\u11a1\u11bc
p5299
sI63086
V\u1159\u11a1\u11f0
p5300
sI63364
V\u115f
sI63365
V\u1100
sI63366
V\u1101
sI63367
V\u115a
sI63368
V\u1102
sI63369
V\u1113
sI63370
V\u1114
sI63371
V\u1115
sI63372
V\u1116
sI63373
V\u115b
sI63374
V\u115c
sI63375
V\u115d
sI63376
V\u1103
sI63377
V\u1117
sI63378
V\u1104
sI63379
V\u115e
sI63380
V\ua960
sI63381
V\ua961
sI63382
V\ua962
sI63383
V\ua963
sI63384
V\u1105
sI63385
V\ua964
sI63386
V\ua965
sI63387
V\u1118
sI63388
V\ua966
sI63389
V\ua967
sI63390
V\u1119
sI63391
V\ua968
sI63392
V\ua969
sI63393
V\ua96a
sI63394
V\ua96b
sI63395
V\ua96c
sI63396
V\ua96d
sI63397
V\ua96e
sI63398
V\u111a
sI63399
V\u111b
sI63400
V\u1106
sI63401
V\ua96f
sI63402
V\ua970
sI63403
V\u111c
sI63404
V\ua971
sI63405
V\u111d
sI63406
V\u1107
sI63407
V\u111e
sI63408
V\u111f
sI63409
V\u1120
sI63410
V\u1108
sI63411
V\u1121
sI63412
V\u1122
sI63413
V\u1123
sI63414
V\u1124
sI63415
V\u1125
sI63416
V\u1126
sI63417
V\ua972
sI63418
V\u1127
sI63419
V\u1128
sI63420
V\ua973
sI63421
V\u1129
sI63422
V\u112a
sI63423
V\ua974
sI63424
V\u112b
sI63425
V\u112c
sI63426
V\u1109
sI63427
V\u112d
sI63428
V\u112e
sI63429
V\u112f
sI63430
V\u1130
sI63431
V\u1131
sI63432
V\u1132
sI63433
V\u1133
sI63434
V\u110a
sI63435
V\ua975
sI63436
V\u1134
sI63437
V\u1135
sI63438
V\u1136
sI63439
V\u1137
sI63440
V\u1138
sI63441
V\u1139
sI63442
V\u113a
sI63443
V\u113b
sI63444
V\u113c
sI63445
V\u113d
sI63446
V\u113e
sI63447
V\u113f
sI63448
V\u1140
sI63449
V\u110b
sI63450
V\u1141
sI63451
V\u1142
sI63452
V\ua976
sI63453
V\u1143
sI63454
V\u1144
sI63455
V\u1145
sI63456
V\u1146
sI63457
V\u1147
sI63458
V\u1148
sI63459
V\u1149
sI63460
V\u114a
sI63461
V\u114b
sI63462
V\ua977
sI63463
V\u114c
sI63464
V\u110c
sI63465
V\u114d
sI63466
V\u110d
sI63467
V\ua978
sI63468
V\u114e
sI63469
V\u114f
sI63470
V\u1150
sI63471
V\u1151
sI63472
V\u110e
sI63473
V\u1152
sI63474
V\u1153
sI63475
V\u1154
sI63476
V\u1155
sI63477
V\u110f
sI63478
V\u1110
sI63479
V\ua979
sI63480
V\u1111
sI63481
V\u1156
sI63482
V\ua97a
sI63483
V\u1157
sI63484
V\u1112
sI63485
V\ua97b
sI63486
V\u1158
sI63487
V\u1159
sI63488
V\ua97c
sI63494
V\u1160
sI63495
V\u1161
sI63496
V\u1176
sI63497
V\u1177
sI63498
V\u11a3
sI63499
V\u1162
sI63500
V\u1163
sI63501
V\u1178
sI63502
V\u1179
sI63503
V\u11a4
sI63504
V\u1164
sI63505
V\u1165
sI63506
V\u117a
sI63507
V\u117b
sI63508
V\u117c
sI63509
V\u1166
sI63510
V\u1167
sI63511
V\u11a5
sI63512
V\u117d
sI63513
V\u117e
sI63514
V\u1168
sI63515
V\u1169
sI63516
V\u116a
sI63517
V\u116b
sI63518
V\u11a6
sI63519
V\u11a7
sI63520
V\u117f
sI63521
V\u1180
sI63522
V\ud7b0
sI63523
V\u1181
sI63524
V\u1182
sI63525
V\ud7b1
sI63526
V\u1183
sI63527
V\u116c
sI63528
V\u116d
sI63529
V\ud7b2
sI63530
V\ud7b3
sI63531
V\u1184
sI63532
V\u1185
sI63533
V\ud7b4
sI63534
V\u1186
sI63535
V\u1187
sI63536
V\u1188
sI63537
V\u116e
sI63538
V\u1189
sI63539
V\u118a
sI63540
V\u116f
sI63541
V\u118b
sI63542
V\u1170
sI63543
V\ud7b5
sI63544
V\u118c
sI63545
V\u118d
sI63546
V\u1171
sI63547
V\ud7b6
sI63548
V\u1172
sI63549
V\u118e
sI63550
V\ud7b7
sI63551
V\u118f
sI63552
V\u1190
sI63553
V\u1191
sI63554
V\u1192
sI63555
V\ud7b8
sI63556
V\u1193
sI63557
V\u1194
sI63558
V\u1173
sI63559
V\ud7b9
sI63560
V\ud7ba
sI63561
V\ud7bb
sI63562
V\ud7bc
sI63563
V\u1195
sI63564
V\u1196
sI63565
V\u1174
sI63566
V\u1197
sI63567
V\u1175
sI63568
V\u1198
sI63569
V\u1199
sI63570
V\ud7bd
sI63571
V\ud7be
sI63572
V\ud7bf
sI63573
V\ud7c0
sI63574
V\u119a
sI63575
V\ud7c1
sI63576
V\ud7c2
sI63577
V\u119b
sI63578
V\ud7c3
sI63579
V\u119c
sI63580
V\ud7c4
sI63581
V\u119d
sI63582
V\u119e
sI63583
V\ud7c5
sI63584
V\u119f
sI63585
V\ud7c6
sI63586
V\u11a0
sI63587
V\u11a1
sI63588
V\u11a2
sI63594
V
sI63595
V\u11a8
sI63596
V\u11a9
sI63597
V\u11fa
sI63598
V\u11c3
sI63599
V\u11fb
sI63600
V\u11aa
sI63601
V\u11c4
sI63602
V\u11fc
sI63603
V\u11fd
sI63604
V\u11fe
sI63605
V\u11ab
sI63606
V\u11c5
sI63607
V\u11ff
sI63608
V\u11c6
sI63609
V\ud7cb
sI63610
V\u11c7
sI63611
V\u11c8
sI63612
V\u11ac
sI63613
V\ud7cc
sI63614
V\u11c9
sI63615
V\u11ad
sI63616
V\u11ae
sI63617
V\u11ca
sI63618
V\ud7cd
sI63619
V\ud7ce
sI63620
V\u11cb
sI63621
V\ud7cf
sI63622
V\ud7d0
sI63623
V\ud7d1
sI63624
V\ud7d2
sI63625
V\ud7d3
sI63626
V\ud7d4
sI63627
V\u11af
sI63628
V\u11b0
sI63629
V\ud7d5
sI63630
V\u11cc
sI63631
V\ud7d6
sI63632
V\u11cd
sI63633
V\u11ce
sI63634
V\u11cf
sI63635
V\u11d0
sI63636
V\ud7d7
sI63637
V\u11b1
sI63638
V\u11d1
sI63639
V\u11d2
sI63640
V\ud7d8
sI63641
V\u11b2
sI63642
V\ud7d9
sI63643
V\u11d3
sI63644
V\ud7da
sI63645
V\u11d4
sI63646
V\u11d5
sI63647
V\u11b3
sI63648
V\u11d6
sI63649
V\u11d7
sI63650
V\ud7db
sI63651
V\u11d8
sI63652
V\u11b4
sI63653
V\u11b5
sI63654
V\u11b6
sI63655
V\u11d9
sI63656
V\ud7dc
sI63657
V\ud7dd
sI63658
V\u11b7
sI63659
V\u11da
sI63660
V\ud7de
sI63661
V\ud7df
sI63662
V\u11db
sI63663
V\ud7e0
sI63664
V\u11dc
sI63665
V\ud7e1
sI63666
V\u11dd
sI63667
V\u11de
sI63668
V\u11df
sI63669
V\ud7e2
sI63670
V\u11e0
sI63671
V\u11e1
sI63672
V\u11e2
sI63673
V\u11b8
sI63674
V\ud7e3
sI63675
V\u11e3
sI63676
V\ud7e4
sI63677
V\ud7e5
sI63678
V\ud7e6
sI63679
V\u11b9
sI63680
V\ud7e7
sI63681
V\ud7e8
sI63682
V\ud7e9
sI63683
V\u11e4
sI63684
V\u11e5
sI63685
V\u11e6
sI63686
V\u11ba
sI63687
V\u11e7
sI63688
V\u11e8
sI63689
V\u11e9
sI63690
V\ud7ea
sI63691
V\u11ea
sI63692
V\ud7eb
sI63693
V\u11bb
sI63694
V\ud7ec
sI63695
V\ud7ed
sI63696
V\ud7ee
sI63697
V\ud7ef
sI63698
V\ud7f0
sI63699
V\ud7f1
sI63700
V\ud7f2
sI63701
V\u11eb
sI63702
V\ud7f3
sI63703
V\ud7f4
sI63704
V\u11bc
sI63705
V\u11ec
sI63706
V\u11ed
sI63707
V\ud7f5
sI63708
V\u11f1
sI63709
V\u11ee
sI63710
V\u11ef
sI63711
V\ud7f6
sI63712
V\u11f0
sI63713
V\u11ec
sI63714
V\u11f1
sI63715
V\u11f2
sI63716
V\u11ef
sI63717
V\ud7f6
sI63718
V\u11bd
sI63719
V\ud7f7
sI63720
V\ud7f8
sI63721
V\ud7f9
sI63722
V\u11be
sI63723
V\u11bf
sI63724
V\u11c0
sI63725
V\u11c1
sI63726
V\u11f3
sI63727
V\ud7fa
sI63728
V\ud7fb
sI63729
V\u11f4
sI63730
V\u11c2
sI63731
V\u11f5
sI63732
V\u11f6
sI63733
V\u11f7
sI63734
V\u11f8
sI63735
V\u11f9
s.